ccollections
defaultdict
p0
(c__builtin__
list
p1
tp2
Rp3
I0
(lp4
I628
asI1
(lp5
I158
aI2919
aI2933
aI1097
aI486
asI2
(lp6
I3285
asI3
(lp7
I3219
aI1431
asI4
(lp8
I467
asI5
(lp9
I648
asI6
(lp10
I1501
asI7
(lp11
I2137
aI1833
asI8
(lp12
I178
aI1033
asI9
(lp13
I1007
asI10
(lp14
I2622
aI1670
asI11
(lp15
I2034
asI12
(lp16
I2487
aI1622
aI794
aI966
aI113
aI557
aI677
aI1357
aI1097
aI2474
aI839
aI1760
asI13
(lp17
I1894
aI2711
aI1493
aI1871
aI1167
asI14
(lp18
I1248
aI146
asI15
(lp19
I2521
asI16
(lp20
I2415
aI314
aI2416
aI616
aI1013
aI2417
aI2418
aI2166
aI1422
aI2597
aI1567
aI622
aI1605
aI1708
asI17
(lp21
I879
aI2150
asI18
(lp22
I812
aI582
aI778
asI19
(lp23
I1451
aI1338
aI3308
asI20
(lp24
I3080
asI21
(lp25
I1073
asI22
(lp26
I726
aI2140
aI3251
asI23
(lp27
I1942
asI24
(lp28
I1227
aI2027
asI25
(lp29
I2057
aI2331
asI26
(lp30
I2729
aI222
asI27
(lp31
I755
aI1290
aI2782
aI1422
aI1943
aI229
aI1012
aI2021
aI2023
aI2282
asI28
(lp32
I28
aI28
aI2312
aI1578
aI1447
aI2313
aI2314
aI2315
aI1678
aI2316
aI1912
aI135
aI2059
asI29
(lp33
I1422
aI2838
asI30
(lp34
I1422
aI532
asI31
(lp35
I136
aI1759
aI1131
aI1625
asI32
(lp36
I118
aI3009
asI33
(lp37
I3193
aI1822
aI824
aI3197
aI3326
asI34
(lp38
I75
asI35
(lp39
I89
asI36
(lp40
I763
asI37
(lp41
I1745
asI38
(lp42
I2388
aI2228
asI39
(lp43
I1412
aI2466
asI40
(lp44
I631
aI2625
asI41
(lp45
I606
aI3309
aI1059
asI42
(lp46
I2655
asI43
(lp47
I136
aI1238
aI1759
aI2632
aI1731
aI887
aI1096
aI2633
aI1625
aI1429
asI44
(lp48
I1227
aI1845
asI45
(lp49
I939
asI46
(lp50
I3237
asI47
(lp51
I3130
aI1388
aI1098
aI820
aI3131
asI48
(lp52
I2185
asI49
(lp53
I2341
aI1510
aI2455
aI2228
aI2994
aI1253
asI50
(lp54
I2528
aI2529
asI51
(lp55
I1034
aI2525
aI1607
aI493
aI1422
aI1214
aI453
aI2828
asI52
(lp56
I274
aI1617
asI53
(lp57
I61
asI54
(lp58
I2378
aI728
aI1903
asI55
(lp59
I2324
aI2119
aI186
asI56
(lp60
I1027
aI2609
asI57
(lp61
I487
aI2570
asI58
(lp62
I2009
aI284
aI1416
aI740
aI742
asI59
(lp63
I962
aI1290
aI968
aI1422
aI2826
aI1214
aI931
asI60
(lp64
I916
aI793
aI2992
asI61
(lp65
I1443
aI2113
aI1734
aI2063
aI53
aI1514
asI62
(lp66
I1620
asI63
(lp67
I1053
aI1053
asI64
(lp68
I1431
asI65
(lp69
I1944
asI66
(lp70
I1062
aI2342
aI3144
asI67
(lp71
I1960
asI68
(lp72
I2411
asI69
(lp73
I157
aI1178
aI2370
asI70
(lp74
I2245
aI2557
aI2899
aI1474
aI3009
aI2335
aI808
asI71
(lp75
I660
aI328
asI72
(lp76
I1896
asI73
(lp77
I497
aI832
aI1779
asI74
(lp78
I2365
asI75
(lp79
I1879
aI34
aI1697
aI1300
asI76
(lp80
I2530
aI1132
aI2644
aI1861
aI2955
aI2428
asI77
(lp81
I1222
asI78
(lp82
I2492
aI2043
aI2366
aI1687
asI79
(lp83
I2089
aI298
asI80
(lp84
I359
aI2316
aI3029
asI81
(lp85
I591
aI1527
aI558
aI591
aI1145
aI2976
aI2414
asI82
(lp86
I2271
asI83
(lp87
I3046
aI1932
aI1383
aI654
aI1842
aI540
aI584
aI3318
aI2673
aI649
aI1225
aI923
aI3299
aI1077
aI3017
aI3018
asI84
(lp88
I582
aI653
asI85
(lp89
I2893
asI86
(lp90
I1857
aI1488
asI87
(lp91
I2215
aI1710
asI88
(lp92
I3156
asI89
(lp93
I35
asI90
(lp94
I118
aI3277
asI91
(lp95
I1992
asI92
(lp96
I582
aI2189
asI93
(lp97
I2939
asI94
(lp98
I1192
aI1192
aI2793
aI2793
asI95
(lp99
I110
aI2269
aI2636
aI928
aI822
aI3274
asI96
(lp100
I1322
aI119
aI339
aI132
asI97
(lp101
I2572
aI902
aI1201
asI98
(lp102
I2174
aI1078
aI2297
aI2510
aI2284
aI2511
aI1406
aI936
aI386
aI353
asI99
(lp103
I157
aI1015
aI2571
aI2571
asI100
(lp104
I100
aI100
aI2158
aI1026
asI101
(lp105
I3087
aI825
aI2855
aI1325
aI1434
aI3161
aI1340
asI102
(lp106
I1016
aI2198
aI1639
aI1748
asI103
(lp107
I2130
asI104
(lp108
I1964
aI1768
asI105
(lp109
I976
asI106
(lp110
I2189
aI2643
aI2776
aI155
aI1366
asI107
(lp111
I3193
asI108
(lp112
I2137
aI1833
asI109
(lp113
I1454
aI2658
aI2659
aI1819
asI110
(lp114
I1551
aI1704
aI95
aI472
aI541
aI3274
asI111
(lp115
I251
asI112
(lp116
I1249
asI113
(lp117
I1875
aI150
aI1533
aI12
asI114
(lp118
I553
aI2677
aI1419
aI2074
aI1538
aI1686
asI115
(lp119
I880
aI2122
asI116
(lp120
I3310
asI117
(lp121
I367
asI118
(lp122
I90
aI32
aI3133
asI119
(lp123
I1829
aI3133
aI96
aI132
asI120
(lp124
I1650
aI337
asI121
(lp125
I1911
aI3137
asI122
(lp126
I827
aI2421
asI123
(lp127
I1992
asI124
(lp128
I124
aI124
aI1811
asI125
(lp129
I831
asI126
(lp130
I204
asI127
(lp131
I143
asI128
(lp132
I1041
asI129
(lp133
I1240
asI130
(lp134
I1004
aI582
asI131
(lp135
I935
aI2622
aI3324
asI132
(lp136
I1329
aI119
aI3134
aI779
aI1322
aI96
asI133
(lp137
I1631
asI134
(lp138
I874
asI135
(lp139
I28
aI2080
aI1566
asI136
(lp140
I1561
aI1759
aI43
aI2507
aI1940
aI2315
aI1702
aI2519
aI31
aI2520
aI2598
asI137
(lp141
I1034
aI755
aI2782
aI1422
asI138
(lp142
I2487
aI1853
aI2488
aI1131
aI2196
aI1097
aI680
aI468
aI1736
asI139
(lp143
I958
aI602
asI140
(lp144
I1713
asI141
(lp145
I1036
asI142
(lp146
I2734
aI1200
aI1002
aI1455
aI2059
asI143
(lp147
I127
asI144
(lp148
I847
aI1130
aI2110
aI1429
asI145
(lp149
I3121
asI146
(lp150
I1248
aI14
asI147
(lp151
I2404
aI1439
aI2625
aI1647
aI2626
aI1350
aI2264
aI2405
asI148
(lp152
I1770
aI2228
aI2068
asI149
(lp153
I364
asI150
(lp154
I2487
aI1622
aI966
aI113
aI557
aI677
aI1357
aI1097
aI2474
aI1760
asI151
(lp155
I2217
aI930
aI2299
aI1736
asI152
(lp156
I2546
aI1666
aI1429
asI153
(lp157
I744
aI755
aI396
aI2925
asI154
(lp158
I450
aI1131
aI1625
aI1668
aI1112
asI155
(lp159
I2643
aI2776
aI155
aI155
aI922
aI106
asI156
(lp160
I3084
aI942
aI1334
aI1677
asI157
(lp161
I99
aI1178
aI69
aI2507
asI158
(lp162
I1
aI1097
aI2919
asI159
(lp163
I465
asI160
(lp164
I934
aI2716
aI2133
aI934
aI926
aI1616
asI161
(lp165
I2003
aI2735
aI3070
asI162
(lp166
I1070
asI163
(lp167
I3182
asI164
(lp168
I2409
asI165
(lp169
I2804
aI944
aI1994
asI166
(lp170
I667
asI167
(lp171
I2909
aI1904
asI168
(lp172
I3193
asI169
(lp173
I929
aI247
asI170
(lp174
I881
aI1755
aI2803
aI2228
aI2583
aI2571
aI491
asI171
(lp175
I425
asI172
(lp176
I2320
aI2322
aI1557
asI173
(lp177
I519
asI174
(lp178
I1289
asI175
(lp179
I2941
asI176
(lp180
I2679
aI2750
asI177
(lp181
I2442
aI1971
aI2687
asI178
(lp182
I1033
aI8
asI179
(lp183
I1860
aI2436
aI1298
aI2696
asI180
(lp184
I2638
aI661
aI351
aI2639
asI181
(lp185
I1422
aI1262
asI182
(lp186
I2262
asI183
(lp187
I2946
asI184
(lp188
I1825
asI185
(lp189
I3278
asI186
(lp190
I55
aI2507
aI2883
asI187
(lp191
I199
asI188
(lp192
I2619
asI189
(lp193
I1802
aI2434
aI2076
asI190
(lp194
I325
aI3184
aI3107
asI191
(lp195
I1927
aI2169
asI192
(lp196
I192
aI192
asI193
(lp197
I572
asI194
(lp198
I1522
aI2900
aI397
aI1620
aI2218
aI3051
aI3052
asI195
(lp199
I1407
aI1823
asI196
(lp200
I2508
asI197
(lp201
I715
aI755
asI198
(lp202
I2327
aI1453
aI2001
asI199
(lp203
I187
asI200
(lp204
I2842
aI2843
asI201
(lp205
I1701
asI202
(lp206
I1594
asI203
(lp207
I2899
aI3009
aI1094
asI204
(lp208
I3087
aI126
aI1434
asI205
(lp209
I854
aI212
aI2296
aI783
aI3076
aI3134
aI3265
asI206
(lp210
I772
asI207
(lp211
I270
asI208
(lp212
I218
aI2433
aI404
aI438
aI1718
aI1534
aI2966
aI2705
aI2706
aI2703
aI997
asI209
(lp213
I1991
asI210
(lp214
I3183
asI211
(lp215
I1896
aI1444
asI212
(lp216
I2835
aI2836
aI783
aI205
aI3076
aI3265
asI213
(lp217
I528
aI2097
aI3073
asI214
(lp218
I2485
aI2928
aI2773
asI215
(lp219
I582
asI216
(lp220
I1655
aI2615
aI695
asI217
(lp221
I1319
aI2867
aI1603
asI218
(lp222
I2433
aI1482
aI1718
aI1896
aI208
aI2703
asI219
(lp223
I3093
aI2254
asI220
(lp224
I755
aI2782
aI1422
aI1214
aI1034
aI2475
aI968
asI221
(lp225
I1097
asI222
(lp226
I2634
aI2729
aI1392
aI2857
aI26
aI567
asI223
(lp227
I223
aI223
asI224
(lp228
I1622
asI225
(lp229
I741
aI1528
aI3203
aI1066
aI3204
asI226
(lp230
I1907
aI2713
asI227
(lp231
I843
aI2619
aI3249
aI1809
asI228
(lp232
I2815
aI411
aI3012
aI1531
aI1233
aI300
asI229
(lp233
I2782
aI307
aI492
aI1230
aI887
aI27
aI2023
aI2282
aI2785
aI895
asI230
(lp234
I1968
aI2979
aI356
asI231
(lp235
I875
asI232
(lp236
I333
aI252
asI233
(lp237
I2079
asI234
(lp238
I2391
aI2993
aI582
asI235
(lp239
I256
asI236
(lp240
I1582
aI618
asI237
(lp241
I1731
aI2564
aI2398
aI585
asI238
(lp242
I735
asI239
(lp243
I1321
aI767
aI3230
asI240
(lp244
I2942
asI241
(lp245
I2174
aI2861
aI603
aI1414
aI936
asI242
(lp246
I796
aI1582
aI2032
aI2196
aI2299
aI1736
asI243
(lp247
I931
aI1812
asI244
(lp248
I906
asI245
(lp249
I3124
aI3189
aI3203
aI1066
aI3204
asI246
(lp250
I2782
aI1422
asI247
(lp251
I2613
aI2088
aI1265
aI2643
aI2848
aI2063
aI1217
aI169
asI248
(lp252
I1669
aI297
asI249
(lp253
I906
asI250
(lp254
I825
aI2083
asI251
(lp255
I111
asI252
(lp256
I232
asI253
(lp257
I843
aI2579
aI843
aI1992
asI254
(lp258
I1822
aI1543
aI2619
aI2732
aI2733
aI2551
aI1687
aI2067
aI3249
aI2222
aI1772
aI266
asI255
(lp259
I2277
asI256
(lp260
I235
asI257
(lp261
I2970
aI720
asI258
(lp262
I962
asI259
(lp263
I2978
aI1637
asI260
(lp264
I2749
asI261
(lp265
I288
asI262
(lp266
I1597
asI263
(lp267
I2655
aI886
aI525
aI737
aI2422
asI264
(lp268
I1267
asI265
(lp269
I2220
aI1536
aI2452
asI266
(lp270
I672
aI1156
aI2067
aI3249
aI254
aI1809
aI3298
aI2619
asI267
(lp271
I1259
aI749
asI268
(lp272
I1942
aI2622
aI3242
aI3324
asI269
(lp273
I3234
aI1782
aI3235
aI1903
aI3228
aI3236
asI270
(lp274
I207
asI271
(lp275
I1266
asI272
(lp276
I450
aI2765
asI273
(lp277
I416
aI1417
aI2217
aI768
aI468
asI274
(lp278
I52
asI275
(lp279
I710
aI1297
asI276
(lp280
I276
aI276
asI277
(lp281
I3238
asI278
(lp282
I2469
aI2015
asI279
(lp283
I2326
aI688
aI279
aI279
aI1928
asI280
(lp284
I1563
aI1296
asI281
(lp285
I646
asI282
(lp286
I2348
aI1163
asI283
(lp287
I3252
aI1596
asI284
(lp288
I2009
aI284
aI284
aI58
asI285
(lp289
I1967
aI1418
asI286
(lp290
I1466
aI2674
aI2401
aI1835
asI287
(lp291
I1011
asI288
(lp292
I1361
aI261
asI289
(lp293
I1422
aI1943
asI290
(lp294
I2701
asI291
(lp295
I873
asI292
(lp296
I594
aI2854
aI2141
aI1843
asI293
(lp297
I1874
aI1585
asI294
(lp298
I540
aI3046
asI295
(lp299
I3061
asI296
(lp300
I2853
asI297
(lp301
I1669
aI248
aI513
asI298
(lp302
I79
aI468
asI299
(lp303
I1134
aI1057
asI300
(lp304
I1410
aI228
aI2815
aI1531
aI2763
asI301
(lp305
I1204
asI302
(lp306
I1943
aI962
aI302
aI302
aI2651
asI303
(lp307
I1422
aI2585
aI493
aI1480
aI1422
aI2116
aI1190
aI719
aI1343
aI3093
aI2254
aI937
aI3186
asI304
(lp308
I1620
aI2025
aI637
asI305
(lp309
I2929
asI306
(lp310
I1368
asI307
(lp311
I1290
aI2782
aI1918
aI1230
aI2230
aI2398
aI585
aI1943
aI229
aI2676
asI308
(lp312
I2930
aI3221
asI309
(lp313
I1680
asI310
(lp314
I2936
aI2937
aI1878
asI311
(lp315
I413
aI2803
aI1253
asI312
(lp316
I2644
asI313
(lp317
I964
aI2984
asI314
(lp318
I16
aI912
aI2596
aI2166
aI1422
aI2597
aI1567
aI1943
aI622
aI1605
aI2637
aI373
aI1708
asI315
(lp319
I1124
asI316
(lp320
I2931
aI2932
aI777
asI317
(lp321
I411
asI318
(lp322
I717
asI319
(lp323
I2220
aI1536
aI2646
asI320
(lp324
I2962
asI321
(lp325
I2227
aI3083
asI322
(lp326
I1879
asI323
(lp327
I697
asI324
(lp328
I3116
asI325
(lp329
I190
aI3184
asI326
(lp330
I984
aI3085
asI327
(lp331
I1382
asI328
(lp332
I660
aI71
asI329
(lp333
I2517
aI2618
aI1889
asI330
(lp334
I3206
aI3184
asI331
(lp335
I1278
aI1709
aI1083
aI2948
asI332
(lp336
I2259
aI2921
asI333
(lp337
I232
aI777
asI334
(lp338
I1692
asI335
(lp339
I1088
aI723
asI336
(lp340
I1180
aI2580
aI2581
aI1600
aI561
aI1180
aI876
aI3002
asI337
(lp341
I1650
aI120
asI338
(lp342
I1227
aI2642
asI339
(lp343
I472
aI2789
aI96
asI340
(lp344
I2597
aI1050
asI341
(lp345
I1869
asI342
(lp346
I678
aI3296
asI343
(lp347
I1773
asI344
(lp348
I3289
aI2238
asI345
(lp349
I1452
asI346
(lp350
I1663
asI347
(lp351
I1853
aI1758
aI1202
aI2073
aI2527
aI2633
asI348
(lp352
I1991
aI399
asI349
(lp353
I2760
asI350
(lp354
I2399
asI351
(lp355
I2638
aI661
aI2639
aI180
aI1112
asI352
(lp356
I1728
aI3293
asI353
(lp357
I2434
aI2434
aI98
asI354
(lp358
I3006
asI355
(lp359
I1121
asI356
(lp360
I230
aI3156
asI357
(lp361
I2350
aI2350
aI2351
aI1948
asI358
(lp362
I358
aI358
asI359
(lp363
I3029
aI80
asI360
(lp364
I477
asI361
(lp365
I1918
aI2649
aI2444
aI2650
aI2185
asI362
(lp366
I2339
aI2340
asI363
(lp367
I800
aI800
asI364
(lp368
I1991
aI399
aI149
asI365
(lp369
I1150
aI630
asI366
(lp370
I2061
asI367
(lp371
I117
asI368
(lp372
I1199
asI369
(lp373
I580
asI370
(lp374
I2157
aI2499
asI371
(lp375
I3071
aI2463
aI1423
aI1981
aI1369
aI1746
asI372
(lp376
I3193
asI373
(lp377
I2925
aI1605
aI314
aI912
aI2416
aI616
aI2490
aI373
aI373
aI1117
aI1708
aI1117
asI374
(lp378
I1411
aI2790
aI2368
aI3286
asI375
(lp379
I1793
asI376
(lp380
I2300
asI377
(lp381
I715
aI2405
asI378
(lp382
I2767
aI3272
asI379
(lp383
I582
aI2189
asI380
(lp384
I3188
aI2155
asI381
(lp385
I2955
aI1457
asI382
(lp386
I696
asI383
(lp387
I1033
aI989
asI384
(lp388
I1930
asI385
(lp389
I1700
asI386
(lp390
I98
asI387
(lp391
I2808
asI388
(lp392
I2254
asI389
(lp393
I2989
aI2111
asI390
(lp394
I871
aI2103
aI2105
aI1916
asI391
(lp395
I2995
asI392
(lp396
I2316
asI393
(lp397
I566
asI394
(lp398
I2594
aI1879
aI2711
asI395
(lp399
I2622
aI2519
asI396
(lp400
I2887
aI153
aI2217
aI930
aI2519
aI468
asI397
(lp401
I1522
aI194
asI398
(lp402
I1843
aI1251
asI399
(lp403
I957
aI364
aI348
asI400
(lp404
I862
aI400
aI400
asI401
(lp405
I2739
asI402
(lp406
I2861
aI603
aI1414
asI403
(lp407
I3185
asI404
(lp408
I1718
aI1896
aI1534
aI208
aI2703
aI2966
aI2705
aI2706
asI405
(lp409
I1660
aI2179
aI582
aI3274
asI406
(lp410
I1296
asI407
(lp411
I1364
asI408
(lp412
I637
asI409
(lp413
I2584
aI1341
aI1529
asI410
(lp414
I1808
aI3106
asI411
(lp415
I317
aI1335
aI1033
aI1410
aI228
aI2815
asI412
(lp416
I2440
aI3257
asI413
(lp417
I311
aI2718
aI2719
aI2204
aI1812
aI805
aI2720
asI414
(lp418
I1128
aI2429
aI2565
aI1666
aI1625
asI415
(lp419
I2533
asI416
(lp420
I273
aI2645
aI1758
asI417
(lp421
I1335
aI915
asI418
(lp422
I1207
asI419
(lp423
I1004
aI476
asI420
(lp424
I1933
asI421
(lp425
I2275
aI2631
aI1162
aI1135
asI422
(lp426
I2867
aI2237
asI423
(lp427
I1756
asI424
(lp428
I3163
asI425
(lp429
I171
asI426
(lp430
I2129
asI427
(lp431
I1560
aI2114
aI840
aI2477
aI1705
asI428
(lp432
I2404
aI1439
aI2625
aI1647
aI2626
aI2264
aI2405
aI773
asI429
(lp433
I2028
aI1620
aI541
aI2154
asI430
(lp434
I2844
aI1684
asI431
(lp435
I1268
aI2352
aI1174
aI869
asI432
(lp436
I2983
asI433
(lp437
I2829
asI434
(lp438
I1655
aI549
aI2361
aI2362
asI435
(lp439
I1875
aI1019
aI1996
asI436
(lp440
I2317
asI437
(lp441
I2922
asI438
(lp442
I1718
aI1896
aI208
aI2703
aI2966
aI2705
aI2706
asI439
(lp443
I3128
aI2011
asI440
(lp444
I3047
asI441
(lp445
I1782
aI2501
aI2812
asI442
(lp446
I2911
asI443
(lp447
I2406
aI1828
aI857
asI444
(lp448
I2655
aI1301
asI445
(lp449
I509
aI2891
asI446
(lp450
I2388
asI447
(lp451
I1184
aI3286
asI448
(lp452
I888
aI1090
asI449
(lp453
I1543
asI450
(lp454
I1561
aI154
aI1915
aI272
aI2295
aI1020
aI542
aI1965
aI2196
aI2299
aI2519
aI882
aI1817
aI1532
aI2507
asI451
(lp455
I1630
aI2736
asI452
(lp456
I2214
asI453
(lp457
I2782
aI1422
aI1214
aI1034
aI1009
aI1599
aI941
aI807
aI1219
aI1644
aI2475
aI887
aI2784
aI51
aI2053
aI835
aI2254
aI2786
aI2667
asI454
(lp458
I2828
asI455
(lp459
I1656
aI1684
aI1992
aI3017
asI456
(lp460
I1592
asI457
(lp461
I1438
asI458
(lp462
I2358
aI2233
asI459
(lp463
I2099
asI460
(lp464
I1751
aI992
aI3263
aI3030
asI461
(lp465
I1508
asI462
(lp466
I476
asI463
(lp467
I2539
aI2540
asI464
(lp468
I1853
aI1758
asI465
(lp469
I2345
aI2153
aI159
aI2973
asI466
(lp470
I2174
aI936
aI3138
asI467
(lp471
I4
asI468
(lp472
I138
aI273
aI1853
aI2718
aI2719
aI2089
aI298
aI396
aI1665
aI2622
aI2196
aI2217
aI930
aI968
aI1097
aI2299
aI768
aI1473
aI1251
aI1362
aI680
aI1736
aI982
asI469
(lp473
I1478
aI1101
asI470
(lp474
I1982
asI471
(lp475
I2554
aI2588
aI2314
aI1676
asI472
(lp476
I110
aI2269
aI1704
aI780
aI541
aI339
aI703
aI3274
asI473
(lp477
I1808
aI843
aI2524
asI474
(lp478
I3055
aI3056
asI475
(lp479
I3295
asI476
(lp480
I1247
aI2203
aI3046
aI419
aI462
asI477
(lp481
I360
asI478
(lp482
I3046
asI479
(lp483
I3105
asI480
(lp484
I571
asI481
(lp485
I2236
asI482
(lp486
I833
aI1076
aI830
aI3156
aI3272
aI3276
asI483
(lp487
I2624
aI2020
aI1585
asI484
(lp488
I1531
aI1210
asI485
(lp489
I1052
aI2752
asI486
(lp490
I509
aI2891
aI2356
aI1115
aI1
aI1097
aI1202
aI1570
aI3228
aI1362
aI486
aI486
asI487
(lp491
I57
aI837
aI1651
aI1140
aI734
aI2108
asI488
(lp492
I667
asI489
(lp493
I582
asI490
(lp494
I1394
aI2858
asI491
(lp495
I881
aI2228
aI2994
aI170
asI492
(lp496
I1034
aI2404
aI2632
aI755
aI1644
aI1422
aI229
aI1012
aI2181
asI493
(lp497
I2151
aI51
aI1214
aI303
asI494
(lp498
I1620
aI2025
aI637
asI495
(lp499
I1422
aI1262
asI496
(lp500
I861
asI497
(lp501
I1779
aI2974
aI73
aI2975
asI498
(lp502
I2652
asI499
(lp503
I886
aI2274
asI500
(lp504
I3249
aI1809
asI501
(lp505
I1575
aI1011
asI502
(lp506
I517
asI503
(lp507
I1529
asI504
(lp508
I2844
aI2292
aI624
asI505
(lp509
I1729
asI506
(lp510
I1944
aI1583
aI3213
asI507
(lp511
I2834
asI508
(lp512
I2732
aI3248
aI1822
asI509
(lp513
I1570
aI1362
aI445
aI486
asI510
(lp514
I2827
asI511
(lp515
I625
asI512
(lp516
I620
asI513
(lp517
I297
asI514
(lp518
I2809
aI2809
aI2810
asI515
(lp519
I1383
aI3299
aI1498
asI516
(lp520
I2646
asI517
(lp521
I1583
aI502
aI2647
aI1215
asI518
(lp522
I1896
asI519
(lp523
I173
aI3146
aI519
aI519
asI520
(lp524
I2402
aI2380
asI521
(lp525
I964
asI522
(lp526
I1830
asI523
(lp527
I1840
aI2349
aI2349
asI524
(lp528
I1537
aI2787
aI2938
asI525
(lp529
I2573
aI2577
aI648
aI263
aI705
asI526
(lp530
I920
aI2163
asI527
(lp531
I1422
aI1943
asI528
(lp532
I2396
aI962
aI213
aI1422
aI2829
asI529
(lp533
I1958
aI1724
asI530
(lp534
I664
aI1966
aI1641
aI1621
aI1017
asI531
(lp535
I2610
asI532
(lp536
I1944
aI30
asI533
(lp537
I2691
aI1764
asI534
(lp538
I2287
asI535
(lp539
I946
aI641
aI2584
aI946
asI536
(lp540
I2477
asI537
(lp541
I836
aI650
asI538
(lp542
I632
aI1506
asI539
(lp543
I1783
asI540
(lp544
I1945
aI555
aI2910
aI294
aI911
aI2515
aI923
aI2911
aI2646
aI3046
aI83
asI541
(lp545
I472
aI1620
aI110
aI2269
aI1704
aI2840
aI928
aI429
aI2721
aI2745
aI1464
aI1768
aI3047
aI809
aI822
aI1477
aI3048
aI3049
aI1865
aI3050
aI703
aI3274
asI542
(lp546
I450
aI2295
aI1020
asI543
(lp547
I2561
asI544
(lp548
I1915
aI2302
asI545
(lp549
I1046
aI2259
asI546
(lp550
I546
aI546
asI547
(lp551
I819
aI582
asI548
(lp552
I1877
aI2063
aI851
asI549
(lp553
I755
aI2782
aI1422
aI2585
aI2361
aI1821
aI434
asI550
(lp554
I2899
aI3009
aI3010
asI551
(lp555
I749
aI1259
asI552
(lp556
I2412
aI2789
asI553
(lp557
I114
asI554
(lp558
I799
asI555
(lp559
I540
asI556
(lp560
I969
asI557
(lp561
I725
aI150
aI1883
aI1922
aI12
asI558
(lp562
I81
aI591
aI1145
aI2976
aI2414
asI559
(lp563
I1013
aI1097
aI1570
asI560
(lp564
I2482
aI2191
asI561
(lp565
I2580
aI1180
aI2848
aI336
aI3025
aI1366
asI562
(lp566
I1735
aI1586
asI563
(lp567
I582
asI564
(lp568
I3048
aI1477
asI565
(lp569
I2484
aI904
aI1330
aI1264
asI566
(lp570
I393
aI698
aI2212
asI567
(lp571
I2486
aI2898
aI222
aI2730
aI2005
aI2400
aI2464
aI1435
aI3221
asI568
(lp572
I1839
aI3023
asI569
(lp573
I3153
aI624
asI570
(lp574
I1786
asI571
(lp575
I480
aI571
aI571
asI572
(lp576
I1024
aI1998
aI193
asI573
(lp577
I670
aI1478
aI624
asI574
(lp578
I2267
aI1518
aI2049
aI1109
asI575
(lp579
I620
asI576
(lp580
I1887
asI577
(lp581
I1971
aI2080
aI1027
asI578
(lp582
I2225
aI2367
asI579
(lp583
I1410
aI1531
asI580
(lp584
I369
asI581
(lp585
I1750
asI582
(lp586
I2391
aI2447
aI3216
aI489
aI3217
aI234
aI1516
aI879
aI676
aI84
aI215
aI2840
aI1410
aI2134
aI1753
aI2920
aI587
aI2100
aI647
aI2258
aI1004
aI2921
aI1921
aI2249
aI1693
aI1387
aI1525
aI2950
aI2973
aI1660
aI2179
aI405
aI3099
aI1967
aI1200
aI1002
aI547
aI3148
aI563
aI18
aI3218
aI1170
aI637
aI2066
aI1701
aI130
aI653
aI3017
aI379
aI92
aI790
asI583
(lp587
I2384
asI584
(lp588
I2531
aI1039
aI83
asI585
(lp589
I237
aI1422
aI1214
aI1997
aI307
aI1943
asI586
(lp590
I2556
aI2782
aI1422
aI2116
aI1214
asI587
(lp591
I2840
aI582
asI588
(lp592
I1275
aI2536
aI828
aI2537
aI1255
asI589
(lp593
I3096
asI590
(lp594
I2868
aI2185
aI2206
asI591
(lp595
I81
aI81
aI1527
aI558
aI1145
aI2704
aI2414
asI592
(lp596
I592
aI592
asI593
(lp597
I2325
asI594
(lp598
I292
asI595
(lp599
I1447
aI1961
aI878
aI618
asI596
(lp600
I3191
asI597
(lp601
I3174
asI598
(lp602
I1887
asI599
(lp603
I1259
asI600
(lp604
I2105
aI1001
asI601
(lp605
I3192
asI602
(lp606
I139
aI1858
aI958
asI603
(lp607
I2799
aI402
aI1471
aI241
aI3128
asI604
(lp608
I2458
aI692
asI605
(lp609
I859
asI606
(lp610
I41
asI607
(lp611
I1879
aI2868
asI608
(lp612
I608
aI608
aI2889
asI609
(lp613
I2866
aI684
asI610
(lp614
I2910
aI3039
aI1116
aI2911
asI611
(lp615
I2605
aI620
asI612
(lp616
I1316
asI613
(lp617
I2603
asI614
(lp618
I849
asI615
(lp619
I2673
aI1818
asI616
(lp620
I16
aI2415
aI2596
aI2166
aI755
aI1422
aI2597
aI2862
aI1567
aI931
aI1943
aI622
aI1605
aI373
aI1708
asI617
(lp621
I2290
asI618
(lp622
I236
aI2380
aI595
asI619
(lp623
I2290
asI620
(lp624
I2413
aI2439
aI2605
aI575
aI2174
aI611
aI2321
aI512
aI709
asI621
(lp625
I1790
asI622
(lp626
I2596
aI2597
aI2925
aI1943
aI16
aI314
aI912
aI2416
aI616
aI1013
aI2637
aI2418
aI1708
aI1117
aI1605
aI1708
asI623
(lp627
I632
aI1506
asI624
(lp628
I1318
aI2578
aI2292
aI1836
aI2134
aI1335
aI915
aI1272
aI2845
aI865
aI504
aI569
aI3153
aI777
aI573
asI625
(lp629
I2376
aI511
asI626
(lp630
I626
aI626
aI2126
asI627
(lp631
I2632
aI755
aI2681
aI2564
asI628
(lp632
I0
asI629
(lp633
I2630
aI1460
aI1717
asI630
(lp634
I2319
aI365
aI1757
asI631
(lp635
I40
asI632
(lp636
I623
aI538
asI633
(lp637
I1422
aI1470
asI634
(lp638
I2132
aI2899
aI1162
asI635
(lp639
I2922
asI636
(lp640
I3258
asI637
(lp641
I1620
aI2440
aI2562
aI494
aI2931
aI1921
aI1967
aI1797
aI304
aI2977
aI2066
aI808
aI408
aI582
aI2189
asI638
(lp642
I3039
aI2218
asI639
(lp643
I2753
aI1893
asI640
(lp644
I3214
aI1935
asI641
(lp645
I1080
aI1447
aI2595
aI825
aI535
asI642
(lp646
I2464
aI1000
asI643
(lp647
I1741
asI644
(lp648
I2282
asI645
(lp649
I3315
asI646
(lp650
I281
asI647
(lp651
I582
asI648
(lp652
I2647
aI2574
aI525
aI1143
aI2575
aI651
aI5
asI649
(lp653
I2495
aI2646
aI3046
aI3099
aI2911
aI83
asI650
(lp654
I1655
aI537
aI2505
asI651
(lp655
I648
asI652
(lp656
I2214
asI653
(lp657
I582
aI84
asI654
(lp658
I2515
aI83
asI655
(lp659
I3200
aI687
aI3201
asI656
(lp660
I2940
asI657
(lp661
I658
asI658
(lp662
I657
asI659
(lp663
I1720
asI660
(lp664
I1481
aI328
aI71
asI661
(lp665
I2404
aI1439
aI1740
aI2639
aI2640
aI2641
aI2264
aI1096
aI2405
aI351
aI180
aI1625
asI662
(lp666
I2260
asI663
(lp667
I2385
asI664
(lp668
I1203
aI2438
aI530
aI1026
asI665
(lp669
I2256
asI666
(lp670
I1491
aI3140
asI667
(lp671
I1530
aI1707
aI1179
aI1243
aI1187
aI760
aI488
aI3101
aI1555
aI166
aI1099
asI668
(lp672
I1294
aI2536
asI669
(lp673
I2492
asI670
(lp674
I974
aI2844
aI2578
aI1836
aI1565
aI2771
aI865
aI924
aI1311
aI573
aI1472
asI671
(lp675
I1960
asI672
(lp676
I1738
aI266
aI3133
asI673
(lp677
I1293
aI2445
aI3261
asI674
(lp678
I1865
asI675
(lp679
I1864
aI2875
aI2827
asI676
(lp680
I582
asI677
(lp681
I2443
aI2506
aI150
aI1275
aI2199
aI985
aI12
asI678
(lp682
I342
asI679
(lp683
I1979
asI680
(lp684
I138
aI2089
aI468
asI681
(lp685
I2980
aI2577
asI682
(lp686
I881
aI1471
aI2494
aI2228
asI683
(lp687
I2558
asI684
(lp688
I609
asI685
(lp689
I2961
asI686
(lp690
I2827
aI2181
asI687
(lp691
I655
aI3200
asI688
(lp692
I279
aI1928
asI689
(lp693
I2729
aI3221
asI690
(lp694
I2948
aI2579
aI3007
aI2939
aI1613
asI691
(lp695
I2396
aI2166
aI2597
aI2481
aI2417
aI968
aI1567
aI931
asI692
(lp696
I604
asI693
(lp697
I2182
asI694
(lp698
I2965
asI695
(lp699
I1682
aI2483
aI216
aI2791
aI2792
asI696
(lp700
I2352
aI382
aI1236
aI869
asI697
(lp701
I1783
aI323
asI698
(lp702
I1004
aI566
asI699
(lp703
I1347
asI700
(lp704
I2035
asI701
(lp705
I1712
asI702
(lp706
I2928
asI703
(lp707
I472
aI541
aI2745
asI704
(lp708
I2722
asI705
(lp709
I2577
aI525
aI2422
asI706
(lp710
I2927
aI800
asI707
(lp711
I2028
asI708
(lp712
I3156
asI709
(lp713
I2320
aI2369
aI1987
aI2174
aI1424
aI620
aI1557
aI1471
aI936
asI710
(lp714
I1159
aI275
asI711
(lp715
I3102
aI2727
aI3103
asI712
(lp716
I1177
asI713
(lp717
I2554
aI2604
aI2554
aI2588
aI2314
aI2314
aI1676
asI714
(lp718
I1083
asI715
(lp719
I2404
aI377
aI2264
aI197
aI2405
aI1725
aI1940
asI716
(lp720
I1125
aI2329
aI1125
aI1366
asI717
(lp721
I1896
aI3311
aI1902
aI2976
aI318
asI718
(lp722
I2241
asI719
(lp723
I755
aI1190
aI1190
aI303
asI720
(lp724
I257
asI721
(lp725
I2683
aI1967
aI1485
asI722
(lp726
I1334
aI3107
asI723
(lp727
I2219
aI335
aI1088
asI724
(lp728
I2293
asI725
(lp729
I966
aI557
asI726
(lp730
I2747
aI22
asI727
(lp731
I1682
asI728
(lp732
I54
asI729
(lp733
I2977
asI730
(lp734
I2985
aI2986
aI2987
asI731
(lp735
I2310
asI732
(lp736
I1250
asI733
(lp737
I1296
asI734
(lp738
I487
aI1651
aI3304
asI735
(lp739
I238
asI736
(lp740
I2339
asI737
(lp741
I1460
aI263
asI738
(lp742
I3241
asI739
(lp743
I2213
asI740
(lp744
I1416
aI58
aI742
asI741
(lp745
I225
aI3036
asI742
(lp746
I58
aI740
aI1380
asI743
(lp747
I2140
asI744
(lp748
I2466
aI2235
aI2586
aI153
aI2235
aI2519
aI3275
asI745
(lp749
I2921
asI746
(lp750
I3193
aI2420
aI3028
asI747
(lp751
I1723
aI2501
aI960
aI747
aI747
aI803
aI803
asI748
(lp752
I2668
asI749
(lp753
I551
aI1259
aI267
aI1195
asI750
(lp754
I1065
aI1065
asI751
(lp755
I1447
aI1446
asI752
(lp756
I1204
asI753
(lp757
I1947
asI754
(lp758
I2923
asI755
(lp759
I912
aI616
aI2488
aI1013
aI1009
aI627
aI2585
aI1961
aI2663
aI2664
aI492
aI2650
aI549
aI137
aI220
aI1647
aI887
aI2665
aI153
aI719
aI2622
aI197
aI2257
aI2254
aI27
aI2666
aI2667
aI2128
asI756
(lp760
I2385
asI757
(lp761
I1420
aI2099
asI758
(lp762
I2960
asI759
(lp763
I1512
asI760
(lp764
I1707
aI667
asI761
(lp765
I2375
asI762
(lp766
I2337
asI763
(lp767
I36
asI764
(lp768
I1424
asI765
(lp769
I2124
asI766
(lp770
I1037
aI1037
asI767
(lp771
I1321
aI239
aI3254
asI768
(lp772
I273
aI2645
aI2964
aI468
asI769
(lp773
I1016
aI2081
asI770
(lp774
I1591
aI1202
aI2633
asI771
(lp775
I1256
aI1103
aI2646
asI772
(lp776
I1296
aI1331
aI1546
aI206
asI773
(lp777
I1725
aI428
aI1647
aI2626
aI2264
asI774
(lp778
I1562
aI2606
asI775
(lp779
I775
aI775
aI1422
aI1376
asI776
(lp780
I1030
aI781
asI777
(lp781
I2560
aI2845
aI1691
aI316
aI333
aI624
aI2261
asI778
(lp782
I3223
aI18
aI2252
asI779
(lp783
I932
aI132
asI780
(lp784
I472
asI781
(lp785
I776
aI2375
aI2479
asI782
(lp786
I2945
asI783
(lp787
I2835
aI212
aI2296
aI205
aI2837
aI3076
asI784
(lp788
I1715
aI1822
asI785
(lp789
I1397
asI786
(lp790
I2216
asI787
(lp791
I1413
asI788
(lp792
I3262
asI789
(lp793
I3176
asI790
(lp794
I582
aI1000
aI1545
aI3026
asI791
(lp795
I2309
asI792
(lp796
I1671
aI2476
aI2160
asI793
(lp797
I916
aI60
asI794
(lp798
I1041
aI1357
aI12
asI795
(lp799
I2679
asI796
(lp800
I2063
aI242
aI2217
aI930
aI968
aI2119
asI797
(lp801
I2305
asI798
(lp802
I1992
asI799
(lp803
I1422
aI554
asI800
(lp804
I363
aI363
aI706
asI801
(lp805
I1391
asI802
(lp806
I1573
aI1854
aI1854
asI803
(lp807
I747
aI747
aI803
aI803
aI3019
aI990
asI804
(lp808
I1776
asI805
(lp809
I413
aI986
asI806
(lp810
I1537
asI807
(lp811
I2782
aI1422
aI1214
aI453
aI2564
aI2667
asI808
(lp812
I2562
aI1620
aI637
aI2066
aI2562
aI70
asI809
(lp813
I541
asI810
(lp814
I1913
asI811
(lp815
I1970
asI812
(lp816
I2963
aI1789
aI18
aI1437
asI813
(lp817
I2770
aI2771
aI1874
aI1585
asI814
(lp818
I908
asI815
(lp819
I2339
asI816
(lp820
I2377
aI2426
asI817
(lp821
I2616
asI818
(lp822
I1202
asI819
(lp823
I1247
aI2734
aI2646
aI3046
aI2316
aI1200
aI547
asI820
(lp824
I47
asI821
(lp825
I2591
asI822
(lp826
I95
aI541
aI2498
aI1043
asI823
(lp827
I1909
asI824
(lp828
I33
asI825
(lp829
I1080
aI2855
aI641
aI1574
aI101
aI250
asI826
(lp830
I2712
asI827
(lp831
I2421
aI122
asI828
(lp832
I588
aI828
aI828
aI1255
asI829
(lp833
I1505
aI2411
aI1082
asI830
(lp834
I482
asI831
(lp835
I125
aI3063
aI3063
asI832
(lp836
I1779
aI73
asI833
(lp837
I482
asI834
(lp838
I834
aI834
asI835
(lp839
I2782
aI1422
aI453
aI2828
aI2021
aI2181
aI3030
asI836
(lp840
I537
asI837
(lp841
I487
aI3283
asI838
(lp842
I838
aI838
asI839
(lp843
I12
aI2487
aI1357
asI840
(lp844
I427
aI2559
aI2477
asI841
(lp845
I1459
asI842
(lp846
I842
aI842
aI1963
asI843
(lp847
I473
aI2579
aI2551
aI253
aI227
aI253
aI2202
asI844
(lp848
I1154
asI845
(lp849
I845
aI845
asI846
(lp850
I3193
asI847
(lp851
I2360
aI1875
aI1853
aI2592
aI1666
aI144
aI1517
aI1398
aI2205
aI2633
aI2520
asI848
(lp852
I848
aI848
asI849
(lp853
I614
asI850
(lp854
I2596
aI886
aI2182
aI2024
aI1605
asI851
(lp855
I548
aI2863
asI852
(lp856
I1304
asI853
(lp857
I2252
asI854
(lp858
I2620
aI205
aI1521
asI855
(lp859
I983
asI856
(lp860
I1621
aI2739
asI857
(lp861
I443
aI2406
aI1828
asI858
(lp862
I1803
asI859
(lp863
I1795
aI605
asI860
(lp864
I2920
aI1004
aI2497
aI3296
aI2177
asI861
(lp865
I496
aI1171
aI2178
asI862
(lp866
I400
asI863
(lp867
I1780
aI2209
asI864
(lp868
I904
aI1346
aI1330
aI2874
aI2874
asI865
(lp869
I2266
aI1335
aI2692
aI670
aI1999
aI1836
aI924
aI2212
aI624
asI866
(lp870
I3239
asI867
(lp871
I1173
asI868
(lp872
I897
asI869
(lp873
I2352
aI431
aI696
asI870
(lp874
I2019
asI871
(lp875
I390
asI872
(lp876
I1665
asI873
(lp877
I2693
aI291
aI3225
asI874
(lp878
I2866
aI134
asI875
(lp879
I1131
aI1918
aI1625
aI231
aI2797
aI1257
asI876
(lp880
I2848
aI336
aI3025
aI1366
asI877
(lp881
I2353
aI2442
aI2467
aI1379
aI940
aI1672
aI2375
asI878
(lp882
I2313
aI595
asI879
(lp883
I17
aI582
asI880
(lp884
I1877
aI115
asI881
(lp885
I682
aI491
aI2363
aI170
aI2364
asI882
(lp886
I450
aI2519
asI883
(lp887
I1496
asI884
(lp888
I2512
aI1172
aI1992
asI885
(lp889
I2434
asI886
(lp890
I2277
aI1796
aI2768
aI2769
aI2655
aI2182
aI850
aI499
aI263
aI1567
asI887
(lp891
I1034
aI2404
aI43
aI755
aI2782
aI1422
aI2839
aI2859
aI1214
aI453
aI1943
aI229
aI1012
aI2021
aI2282
aI1351
aI2247
aI1112
asI888
(lp892
I448
asI889
(lp893
I2545
aI1430
aI2799
asI890
(lp894
I2454
asI891
(lp895
I2471
aI2087
aI1108
asI892
(lp896
I892
aI892
asI893
(lp897
I2318
asI894
(lp898
I1070
aI1668
asI895
(lp899
I1290
aI2782
aI229
aI1012
aI2021
aI2023
asI896
(lp900
I1081
asI897
(lp901
I868
asI898
(lp902
I1931
asI899
(lp903
I2123
asI900
(lp904
I1072
asI901
(lp905
I1810
aI1436
aI3037
asI902
(lp906
I2572
aI902
aI902
aI1201
aI97
asI903
(lp907
I2145
aI2969
asI904
(lp908
I2369
aI565
aI864
aI2371
aI1699
asI905
(lp909
I1484
asI906
(lp910
I2567
aI249
aI2568
aI1903
aI244
asI907
(lp911
I1706
asI908
(lp912
I1569
aI2708
aI814
asI909
(lp913
I2268
asI910
(lp914
I910
aI910
asI911
(lp915
I540
aI3060
asI912
(lp916
I314
aI2416
aI2490
aI755
aI2925
aI622
aI1605
aI373
aI1708
aI1117
asI913
(lp917
I913
aI913
asI914
(lp918
I2136
aI1794
aI914
aI914
asI915
(lp919
I2301
aI417
aI624
asI916
(lp920
I60
aI793
asI917
(lp921
I2176
aI1036
aI2660
asI918
(lp922
I3072
aI3080
asI919
(lp923
I1425
asI920
(lp924
I1832
aI526
aI2547
aI1469
asI921
(lp925
I3017
aI1280
aI3026
asI922
(lp926
I1087
aI1246
aI155
asI923
(lp927
I540
aI2218
aI2316
aI3099
aI1170
aI2911
aI83
aI3018
asI924
(lp928
I2578
aI670
aI2845
aI865
asI925
(lp929
I995
asI926
(lp930
I934
aI160
asI927
(lp931
I1135
aI2899
asI928
(lp932
I1326
aI95
aI541
asI929
(lp933
I169
aI2863
asI930
(lp934
I796
aI396
aI2196
aI151
aI2519
aI2633
aI468
asI931
(lp935
I59
aI616
aI2597
aI691
aI243
aI1025
aI1117
asI932
(lp936
I779
asI933
(lp937
I1977
aI1905
asI934
(lp938
I2133
aI160
aI926
aI1616
aI160
asI935
(lp939
I131
aI2590
aI3233
asI936
(lp940
I98
aI466
aI241
aI709
asI937
(lp941
I2377
aI2782
aI303
asI938
(lp942
I2104
aI3251
asI939
(lp943
I45
asI940
(lp944
I1155
aI877
asI941
(lp945
I2782
aI1422
aI1214
aI453
aI2564
aI2667
asI942
(lp946
I2343
aI156
aI2305
aI1863
asI943
(lp947
I2010
aI1554
asI944
(lp948
I165
asI945
(lp949
I3016
asI946
(lp950
I2379
aI1584
aI2906
aI535
aI535
asI947
(lp951
I1716
asI948
(lp952
I1114
asI949
(lp953
I2579
asI950
(lp954
I2292
asI951
(lp955
I1638
aI2656
aI3154
asI952
(lp956
I2982
asI953
(lp957
I2736
aI2298
aI1440
asI954
(lp958
I2366
aI3108
asI955
(lp959
I3144
asI956
(lp960
I1461
aI1022
asI957
(lp961
I399
asI958
(lp962
I2543
aI3035
aI139
aI602
asI959
(lp963
I3075
aI1949
asI960
(lp964
I2501
aI747
asI961
(lp965
I1405
asI962
(lp966
I2226
aI59
aI2416
aI528
aI1422
aI2097
aI3073
aI2829
aI258
aI302
aI2418
asI963
(lp967
I3158
asI964
(lp968
I313
aI521
asI965
(lp969
I2234
aI2166
aI1301
aI1422
aI1567
aI3013
aI3014
aI2829
aI1943
aI1157
aI1112
asI966
(lp970
I725
aI150
aI12
asI967
(lp971
I2701
asI968
(lp972
I796
aI2226
aI59
aI2234
aI2596
aI2166
aI2632
aI2782
aI1422
aI1214
aI2882
aI691
aI1625
aI220
aI1567
aI2564
aI2967
aI2097
aI2774
aI2196
aI3086
aI2829
aI1943
aI1157
aI1605
aI2633
aI468
asI969
(lp973
I556
aI1687
asI970
(lp974
I1949
asI971
(lp975
I2529
asI972
(lp976
I1736
asI973
(lp977
I2778
asI974
(lp978
I1891
aI670
asI975
(lp979
I2478
aI1295
asI976
(lp980
I2434
aI105
asI977
(lp981
I2699
asI978
(lp982
I1422
aI1764
asI979
(lp983
I2458
asI980
(lp984
I2098
aI1645
asI981
(lp985
I2311
asI982
(lp986
I1591
aI468
aI1736
aI1130
asI983
(lp987
I855
asI984
(lp988
I326
aI2046
asI985
(lp989
I2443
aI1275
aI677
asI986
(lp990
I2419
aI805
asI987
(lp991
I2006
asI988
(lp992
I2458
asI989
(lp993
I1033
aI383
asI990
(lp994
I1207
aI1223
aI803
asI991
(lp995
I2557
aI1474
asI992
(lp996
I2242
aI460
aI1421
asI993
(lp997
I2097
aI2774
aI2775
aI2925
aI2427
aI2829
asI994
(lp998
I2224
aI2675
asI995
(lp999
I925
asI996
(lp1000
I3116
asI997
(lp1001
I1896
aI208
aI2703
aI1035
asI998
(lp1002
I3314
aI2589
aI1315
aI1515
aI2909
asI999
(lp1003
I1754
aI2351
aI1948
asI1000
(lp1004
I642
aI2400
aI3120
aI1545
aI790
asI1001
(lp1005
I1119
aI1577
aI600
aI1001
aI1001
asI1002
(lp1006
I1200
aI2734
aI142
aI582
aI2085
asI1003
(lp1007
I1801
asI1004
(lp1008
I2816
aI698
aI2920
aI419
aI130
aI2497
aI582
aI860
asI1005
(lp1009
I1816
asI1006
(lp1010
I2999
aI2762
asI1007
(lp1011
I9
aI1208
asI1008
(lp1012
I1668
asI1009
(lp1013
I1853
aI755
aI1422
aI2507
aI453
asI1010
(lp1014
I2925
aI1703
asI1011
(lp1015
I2330
aI1944
aI1583
aI287
aI501
aI2148
asI1012
(lp1016
I1214
aI1034
aI1644
aI492
aI2475
aI2681
aI887
aI27
aI2023
aI2282
aI2785
aI895
asI1013
(lp1017
I559
aI16
aI2166
aI755
aI1422
aI2597
aI1567
aI1943
aI622
aI1605
asI1014
(lp1018
I1014
aI1014
asI1015
(lp1019
I2443
aI99
aI1275
aI1422
aI2783
asI1016
(lp1020
I102
aI1866
aI769
asI1017
(lp1021
I530
asI1018
(lp1022
I3241
aI1032
aI2514
aI3241
aI2514
asI1019
(lp1023
I1875
aI435
aI2073
aI1625
asI1020
(lp1024
I450
aI542
asI1021
(lp1025
I1188
aI2589
aI3066
aI2108
asI1022
(lp1026
I1461
aI1302
aI956
asI1023
(lp1027
I2709
aI1493
asI1024
(lp1028
I572
asI1025
(lp1029
I931
aI2490
asI1026
(lp1030
I664
aI3157
aI100
aI2158
asI1027
(lp1031
I577
aI2608
aI56
aI1620
asI1028
(lp1032
I2320
aI2605
aI1557
asI1029
(lp1033
I1564
aI1564
asI1030
(lp1034
I2353
aI2372
aI1971
aI2062
aI776
aI2354
asI1031
(lp1035
I2328
aI1125
aI2329
asI1032
(lp1036
I3241
aI2514
aI1018
asI1033
(lp1037
I989
aI178
aI1426
aI2819
aI411
aI1234
aI2112
aI383
aI8
asI1034
(lp1038
I1644
aI492
aI1230
aI137
aI2475
aI887
aI51
aI1607
aI2782
aI1422
aI1214
aI2475
aI220
aI453
aI2925
aI1012
aI1617
asI1035
(lp1039
I2703
aI997
aI1152
aI1051
aI1534
aI1206
asI1036
(lp1040
I141
aI917
aI2853
asI1037
(lp1041
I766
aI766
asI1038
(lp1042
I2082
asI1039
(lp1043
I2531
aI584
aI1170
asI1040
(lp1044
I2877
asI1041
(lp1045
I794
aI1357
aI128
asI1042
(lp1046
I3045
asI1043
(lp1047
I2498
aI1829
aI822
aI3274
asI1044
(lp1048
I1802
aI2434
aI2323
aI1619
aI1395
aI1264
asI1045
(lp1049
I3252
aI3253
aI1596
asI1046
(lp1050
I545
aI2259
aI2054
asI1047
(lp1051
I3237
asI1048
(lp1052
I1143
asI1049
(lp1053
I2463
aI2339
asI1050
(lp1054
I340
asI1051
(lp1055
I1035
asI1052
(lp1056
I1239
aI485
aI2657
aI2752
aI3215
asI1053
(lp1057
I63
aI63
asI1054
(lp1058
I1214
aI2626
aI1943
asI1055
(lp1059
I2879
asI1056
(lp1060
I2593
asI1057
(lp1061
I299
asI1058
(lp1062
I1366
asI1059
(lp1063
I1337
aI41
asI1060
(lp1064
I1979
asI1061
(lp1065
I1061
aI1061
asI1062
(lp1066
I66
aI2232
asI1063
(lp1067
I1675
aI2543
asI1064
(lp1068
I1853
aI1202
aI2527
aI2633
asI1065
(lp1069
I750
aI750
aI1065
aI1065
asI1066
(lp1070
I225
aI3036
aI245
aI3203
aI3204
asI1067
(lp1071
I3021
asI1068
(lp1072
I2899
asI1069
(lp1073
I2503
aI2504
asI1070
(lp1074
I162
aI2399
aI894
aI1625
asI1071
(lp1075
I1422
aI2822
aI2829
aI2128
asI1072
(lp1076
I1818
aI900
aI1309
asI1073
(lp1077
I21
aI3303
asI1074
(lp1078
I1095
asI1075
(lp1079
I2780
asI1076
(lp1080
I1589
aI482
asI1077
(lp1081
I1077
aI1077
aI83
asI1078
(lp1082
I98
aI2510
aI2848
aI1259
asI1079
(lp1083
I1707
aI1555
aI1950
asI1080
(lp1084
I1348
aI825
aI2595
aI641
aI1340
asI1081
(lp1085
I896
asI1082
(lp1086
I829
aI2532
aI3273
asI1083
(lp1087
I1709
aI3069
aI331
aI714
asI1084
(lp1088
I2343
aI2343
aI1123
asI1085
(lp1089
I3244
aI3139
asI1086
(lp1090
I1807
asI1087
(lp1091
I1239
aI922
aI2054
aI1620
aI2189
asI1088
(lp1092
I335
aI723
aI2953
asI1089
(lp1093
I1400
aI1400
asI1090
(lp1094
I448
asI1091
(lp1095
I2861
aI2874
aI1471
asI1092
(lp1096
I1579
aI1662
aI3185
asI1093
(lp1097
I2423
aI2424
aI2425
aI2161
aI1990
asI1094
(lp1098
I2899
aI2052
aI3051
aI203
asI1095
(lp1099
I1074
asI1096
(lp1100
I43
aI2638
aI661
asI1097
(lp1101
I559
aI1875
aI158
aI150
aI138
aI2648
aI1467
aI1879
aI1894
aI221
aI1625
aI2919
aI2933
aI1
aI2427
aI1429
aI486
aI12
aI468
asI1098
(lp1102
I47
asI1099
(lp1103
I667
aI1530
asI1100
(lp1104
I1526
asI1101
(lp1105
I469
asI1102
(lp1106
I2602
aI1939
asI1103
(lp1107
I771
aI1116
aI2911
asI1104
(lp1108
I2871
asI1105
(lp1109
I1894
aI1167
asI1106
(lp1110
I2403
aI2757
asI1107
(lp1111
I2496
aI2497
asI1108
(lp1112
I891
asI1109
(lp1113
I1518
aI574
asI1110
(lp1114
I1952
asI1111
(lp1115
I2727
aI1983
asI1112
(lp1116
I2820
aI2522
aI154
aI2927
aI1644
aI1480
aI2475
aI1647
aI2626
aI887
aI1635
aI965
aI1251
aI351
aI3014
asI1113
(lp1117
I3211
asI1114
(lp1118
I948
asI1115
(lp1119
I2891
aI3042
aI3228
aI486
asI1116
(lp1120
I1836
aI1103
aI610
asI1117
(lp1121
I2596
aI2166
aI1422
aI1567
aI931
aI2925
aI1943
aI622
aI1605
aI373
aI1708
aI912
aI2637
aI373
aI1117
aI1117
asI1118
(lp1122
I1194
asI1119
(lp1123
I2552
aI2749
aI1577
aI1001
asI1120
(lp1124
I1659
aI2654
asI1121
(lp1125
I355
asI1122
(lp1126
I2396
aI2991
asI1123
(lp1127
I2343
aI1855
aI1084
aI1733
asI1124
(lp1128
I315
asI1125
(lp1129
I1031
aI1125
aI1125
aI2884
aI716
aI2884
aI716
asI1126
(lp1130
I3033
asI1127
(lp1131
I3141
asI1128
(lp1132
I414
aI1761
asI1129
(lp1133
I2513
aI3241
asI1130
(lp1134
I1666
aI2728
aI2057
aI1591
aI144
aI1429
aI2110
aI2331
aI2422
aI982
asI1131
(lp1135
I1875
aI1666
aI138
aI154
aI1609
aI2680
aI2681
aI2621
aI875
aI31
aI1251
asI1132
(lp1136
I76
asI1133
(lp1137
I3259
asI1134
(lp1138
I299
asI1135
(lp1139
I927
aI2683
aI2899
aI421
aI3207
aI1485
asI1136
(lp1140
I2196
asI1137
(lp1141
I2544
asI1138
(lp1142
I2767
asI1139
(lp1143
I2223
asI1140
(lp1144
I487
asI1141
(lp1145
I1241
asI1142
(lp1146
I1217
asI1143
(lp1147
I1048
aI2573
aI648
aI3053
aI3174
aI1677
aI3193
asI1144
(lp1148
I1556
aI1396
aI1282
aI2382
asI1145
(lp1149
I81
aI591
aI558
aI2152
aI1896
asI1146
(lp1150
I1896
asI1147
(lp1151
I1449
asI1148
(lp1152
I1148
aI1148
asI1149
(lp1153
I1404
asI1150
(lp1154
I365
asI1151
(lp1155
I1847
asI1152
(lp1156
I2414
aI2703
aI1035
asI1153
(lp1157
I2968
aI3078
aI3079
asI1154
(lp1158
I844
asI1155
(lp1159
I2353
aI2442
aI2467
aI1379
aI940
aI1672
aI2375
asI1156
(lp1160
I3133
aI1738
aI266
asI1157
(lp1161
I1422
aI2829
aI1943
aI1281
aI965
aI968
asI1158
(lp1162
I2813
asI1159
(lp1163
I2086
aI2754
aI2755
aI710
asI1160
(lp1164
I1432
asI1161
(lp1165
I2714
asI1162
(lp1166
I634
aI3010
aI421
asI1163
(lp1167
I282
aI2348
aI2348
asI1164
(lp1168
I2344
asI1165
(lp1169
I2041
aI2462
asI1166
(lp1170
I1166
aI1166
asI1167
(lp1171
I1894
aI1105
aI2711
aI1493
aI13
aI1901
asI1168
(lp1172
I1814
asI1169
(lp1173
I1209
asI1170
(lp1174
I2531
aI2726
aI1039
aI2819
aI1225
aI923
aI582
asI1171
(lp1175
I1171
aI1171
aI861
asI1172
(lp1176
I1363
aI884
asI1173
(lp1177
I867
aI2794
aI1720
aI2796
asI1174
(lp1178
I431
asI1175
(lp1179
I2958
asI1176
(lp1180
I2226
aI1821
aI2435
asI1177
(lp1181
I712
aI1177
aI1177
asI1178
(lp1182
I157
aI69
asI1179
(lp1183
I1707
aI667
asI1180
(lp1184
I2580
aI2581
aI561
aI1600
aI2643
aI2329
aI336
aI1366
aI2848
aI336
aI3025
aI1366
asI1181
(lp1185
I3316
asI1182
(lp1186
I2960
asI1183
(lp1187
I1600
aI2643
aI1366
asI1184
(lp1188
I447
aI2186
asI1185
(lp1189
I2955
asI1186
(lp1190
I2306
aI1868
aI3193
asI1187
(lp1191
I667
asI1188
(lp1192
I1021
asI1189
(lp1193
I1767
aI3021
aI2060
asI1190
(lp1194
I2585
aI2828
aI719
aI719
aI303
asI1191
(lp1195
I3108
asI1192
(lp1196
I94
aI94
aI2793
asI1193
(lp1197
I1981
aI1841
asI1194
(lp1198
I2246
aI1118
aI3280
asI1195
(lp1199
I749
asI1196
(lp1200
I1791
asI1197
(lp1201
I1896
asI1198
(lp1202
I1724
asI1199
(lp1203
I368
aI1993
asI1200
(lp1204
I1002
aI819
aI142
aI582
asI1201
(lp1205
I2572
aI902
aI97
asI1202
(lp1206
I818
aI2356
aI2527
aI1570
aI770
aI1064
aI347
aI486
asI1203
(lp1207
I2438
aI664
asI1204
(lp1208
I301
aI752
asI1205
(lp1209
I1212
aI2830
asI1206
(lp1210
I1035
asI1207
(lp1211
I418
aI990
asI1208
(lp1212
I1007
aI1767
aI2877
aI2060
asI1209
(lp1213
I1169
asI1210
(lp1214
I1531
aI484
aI2612
asI1211
(lp1215
I1585
aI2780
aI2780
aI2779
aI1211
aI1211
asI1212
(lp1216
I1473
aI1205
asI1213
(lp1217
I2325
asI1214
(lp1218
I1034
aI59
aI2649
aI2585
aI2824
aI941
aI807
aI1219
aI1290
aI493
aI1644
aI2782
aI1480
aI586
aI2826
aI1230
aI2444
aI2650
aI2475
aI220
aI453
aI887
aI2230
aI2784
aI51
aI2398
aI585
aI1724
aI968
aI2053
aI1012
aI1054
aI2023
aI2860
aI2786
asI1215
(lp1219
I2923
aI517
asI1216
(lp1220
I1801
asI1217
(lp1221
I247
aI1142
asI1218
(lp1222
I1868
aI3068
asI1219
(lp1223
I2782
aI1422
aI1214
aI453
aI2564
aI2667
asI1220
(lp1224
I2472
aI2670
aI2672
aI1721
aI2868
aI1629
asI1221
(lp1225
I2054
asI1222
(lp1226
I2434
aI1864
aI2684
aI77
asI1223
(lp1227
I990
asI1224
(lp1228
I2348
asI1225
(lp1229
I1932
aI1170
aI83
asI1226
(lp1230
I2853
asI1227
(lp1231
I338
aI2095
aI24
aI2642
aI1845
aI44
asI1228
(lp1232
I1317
asI1229
(lp1233
I3098
asI1230
(lp1234
I1034
aI1666
aI1290
aI2859
aI307
aI1214
aI229
asI1231
(lp1235
I1390
aI1586
asI1232
(lp1236
I2226
aI2211
aI2926
asI1233
(lp1237
I228
asI1234
(lp1238
I1033
asI1235
(lp1239
I2245
aI2335
aI1677
asI1236
(lp1240
I696
asI1237
(lp1241
I3219
aI1431
aI1553
asI1238
(lp1242
I2506
aI43
aI2782
aI1422
asI1239
(lp1243
I1265
aI2210
aI1052
aI1087
aI2249
aI3215
asI1240
(lp1244
I129
asI1241
(lp1245
I1694
aI1907
aI1141
asI1242
(lp1246
I2311
asI1243
(lp1247
I667
asI1244
(lp1248
I2944
aI3193
asI1245
(lp1249
I1245
aI1245
aI2482
asI1246
(lp1250
I2776
aI922
asI1247
(lp1251
I476
aI819
asI1248
(lp1252
I1248
aI1248
aI14
aI146
asI1249
(lp1253
I112
aI2280
asI1250
(lp1254
I732
asI1251
(lp1255
I2483
aI1131
aI1422
aI1625
aI1965
aI2398
aI2622
aI1843
aI398
aI468
aI1112
asI1252
(lp1256
I3117
aI3118
aI3119
asI1253
(lp1257
I49
aI311
aI1915
aI1510
aI2455
aI1328
asI1254
(lp1258
I2722
asI1255
(lp1259
I588
aI828
aI2537
asI1256
(lp1260
I2259
aI771
aI3046
asI1257
(lp1261
I2797
aI875
asI1258
(lp1262
I1689
aI1689
asI1259
(lp1263
I551
aI1078
aI599
aI2897
aI2510
aI267
aI749
asI1260
(lp1264
I2219
aI1981
asI1261
(lp1265
I2480
aI2481
asI1262
(lp1266
I181
aI2978
aI2825
aI495
asI1263
(lp1267
I2529
asI1264
(lp1268
I2369
aI565
aI2984
aI2174
aI1044
asI1265
(lp1269
I1239
aI247
asI1266
(lp1270
I3273
aI271
asI1267
(lp1271
I264
asI1268
(lp1272
I2352
aI431
asI1269
(lp1273
I1269
aI1269
asI1270
(lp1274
I1270
aI1270
asI1271
(lp1275
I1461
aI1302
aI2601
asI1272
(lp1276
I624
asI1273
(lp1277
I1422
asI1274
(lp1278
I1739
asI1275
(lp1279
I2506
aI588
aI985
aI1015
aI1825
aI1731
aI2444
aI677
aI2361
asI1276
(lp1280
I1291
asI1277
(lp1281
I2725
asI1278
(lp1282
I331
asI1279
(lp1283
I2627
aI2628
asI1280
(lp1284
I921
asI1281
(lp1285
I2226
aI2234
aI1943
aI1157
asI1282
(lp1286
I2381
aI1144
asI1283
(lp1287
I1370
asI1284
(lp1288
I1312
asI1285
(lp1289
I1523
asI1286
(lp1290
I1411
aI2790
aI1543
aI2366
aI3286
asI1287
(lp1291
I2940
aI2058
asI1288
(lp1292
I1648
asI1289
(lp1293
I174
asI1290
(lp1294
I59
aI307
aI1230
aI27
aI2023
aI895
aI2782
aI1214
asI1291
(lp1295
I1276
asI1292
(lp1296
I1811
asI1293
(lp1297
I673
aI3261
asI1294
(lp1298
I668
asI1295
(lp1299
I975
asI1296
(lp1300
I406
aI733
aI772
aI280
aI1585
asI1297
(lp1301
I275
aI2393
asI1298
(lp1302
I179
aI2092
asI1299
(lp1303
I2406
asI1300
(lp1304
I75
asI1301
(lp1305
I444
aI2774
aI2775
aI965
asI1302
(lp1306
I2601
aI1461
aI1271
aI1022
asI1303
(lp1307
I3047
asI1304
(lp1308
I852
asI1305
(lp1309
I3021
asI1306
(lp1310
I3180
aI3181
asI1307
(lp1311
I2112
aI1865
asI1308
(lp1312
I2680
aI1769
asI1309
(lp1313
I1072
asI1310
(lp1314
I3125
aI3221
asI1311
(lp1315
I2607
aI670
aI2316
asI1312
(lp1316
I1284
asI1313
(lp1317
I2709
aI3246
aI1462
asI1314
(lp1318
I3094
asI1315
(lp1319
I998
asI1316
(lp1320
I612
aI3015
asI1317
(lp1321
I1228
asI1318
(lp1322
I624
asI1319
(lp1323
I217
aI1770
aI1603
aI2237
asI1320
(lp1324
I2629
aI2159
asI1321
(lp1325
I767
aI3229
aI3230
aI239
asI1322
(lp1326
I96
aI132
asI1323
(lp1327
I1323
aI1323
asI1324
(lp1328
I1562
aI1410
aI2816
aI2817
aI1449
aI2816
asI1325
(lp1329
I101
asI1326
(lp1330
I2245
aI928
aI1408
aI1620
aI2335
aI2400
asI1327
(lp1331
I2164
asI1328
(lp1332
I3162
aI1253
asI1329
(lp1333
I132
asI1330
(lp1334
I2369
aI565
aI864
aI2371
aI1699
asI1331
(lp1335
I772
aI2142
asI1332
(lp1336
I2777
asI1333
(lp1337
I2594
aI1879
aI2711
asI1334
(lp1338
I722
aI156
asI1335
(lp1339
I2578
aI865
aI411
aI2612
aI417
aI624
asI1336
(lp1340
I1681
asI1337
(lp1341
I1059
asI1338
(lp1342
I19
asI1339
(lp1343
I2758
asI1340
(lp1344
I1080
aI2855
aI101
asI1341
(lp1345
I3151
aI1925
aI409
asI1342
(lp1346
I2396
asI1343
(lp1347
I2782
aI1422
aI1427
aI2829
aI1943
aI2398
aI303
asI1344
(lp1348
I2118
asI1345
(lp1349
I1892
asI1346
(lp1350
I2861
aI864
aI2874
asI1347
(lp1351
I699
asI1348
(lp1352
I2276
aI1574
aI1080
asI1349
(lp1353
I2528
aI3129
aI1749
asI1350
(lp1354
I147
aI1399
asI1351
(lp1355
I2121
aI1644
aI887
asI1352
(lp1356
I2412
aI1829
asI1353
(lp1357
I2900
asI1354
(lp1358
I2812
asI1355
(lp1359
I2866
aI2984
asI1356
(lp1360
I1762
asI1357
(lp1361
I1041
aI150
aI794
aI12
aI839
asI1358
(lp1362
I2919
asI1359
(lp1363
I2174
asI1360
(lp1364
I1360
aI1360
asI1361
(lp1365
I288
asI1362
(lp1366
I509
aI486
aI468
asI1363
(lp1367
I2512
aI1172
aI1822
asI1364
(lp1368
I2240
aI2184
aI407
asI1365
(lp1369
I1933
aI1504
asI1366
(lp1370
I1183
aI2088
aI1180
aI1058
aI2580
aI2581
aI561
aI1180
aI876
aI716
aI106
asI1367
(lp1371
I2947
asI1368
(lp1372
I306
asI1369
(lp1373
I3071
aI371
aI1981
asI1370
(lp1374
I1283
asI1371
(lp1375
I1962
asI1372
(lp1376
I1841
asI1373
(lp1377
I1885
aI1948
asI1374
(lp1378
I2078
asI1375
(lp1379
I1375
aI1375
asI1376
(lp1380
I775
asI1377
(lp1381
I1438
asI1378
(lp1382
I2907
asI1379
(lp1383
I2353
aI2442
aI1155
aI877
aI2375
aI1823
asI1380
(lp1384
I1416
aI742
asI1381
(lp1385
I2553
aI1846
aI2322
asI1382
(lp1386
I327
aI3038
asI1383
(lp1387
I515
aI83
asI1384
(lp1388
I2779
aI3052
asI1385
(lp1389
I2452
asI1386
(lp1390
I1635
asI1387
(lp1391
I582
asI1388
(lp1392
I47
asI1389
(lp1393
I3043
asI1390
(lp1394
I1231
aI2173
asI1391
(lp1395
I801
aI2756
asI1392
(lp1396
I2634
aI222
aI2857
aI3212
asI1393
(lp1397
I1721
asI1394
(lp1398
I490
asI1395
(lp1399
I1044
aI2323
aI2861
aI2866
aI2984
asI1396
(lp1400
I2381
aI1144
asI1397
(lp1401
I785
asI1398
(lp1402
I2427
aI847
aI2110
aI1429
asI1399
(lp1403
I1587
aI1666
aI2224
aI2675
aI1350
aI2427
aI1429
asI1400
(lp1404
I1944
aI1089
aI1089
asI1401
(lp1405
I1411
aI2790
asI1402
(lp1406
I2243
asI1403
(lp1407
I1978
asI1404
(lp1408
I1404
aI1404
aI1149
asI1405
(lp1409
I961
asI1406
(lp1410
I98
aI1406
aI1406
asI1407
(lp1411
I195
aI1407
aI1407
asI1408
(lp1412
I1326
asI1409
(lp1413
I2738
asI1410
(lp1414
I2345
aI579
aI2814
aI2815
aI1324
aI411
aI1531
aI582
aI300
aI3294
asI1411
(lp1415
I1401
aI1286
aI2366
aI2367
aI374
aI1726
aI2067
aI2368
asI1412
(lp1416
I39
aI3138
asI1413
(lp1417
I787
asI1414
(lp1418
I1422
aI2861
aI402
aI241
asI1415
(lp1419
I1668
aI1835
asI1416
(lp1420
I740
aI1380
aI58
asI1417
(lp1421
I273
aI2645
aI2217
aI1758
asI1418
(lp1422
I285
asI1419
(lp1423
I114
aI2339
aI1698
aI2389
asI1420
(lp1424
I757
asI1421
(lp1425
I992
asI1422
(lp1426
I2820
aI2821
aI1273
aI2396
aI16
aI1034
aI314
aI59
aI1470
aI2234
aI2649
aI1590
aI1238
aI616
aI2822
aI2047
aI1013
aI1009
aI527
aI2823
aI2585
aI2490
aI962
aI1015
aI799
aI2824
aI181
aI1834
aI2825
aI2668
aI2115
aI941
aI495
aI807
aI2139
aI1219
aI528
aI2663
aI1607
aI2664
aI1644
aI492
aI775
aI586
aI2116
aI2826
aI2444
aI2650
aI2827
aI1663
aI1071
aI549
aI137
aI2475
aI220
aI453
aI2681
aI1630
aI887
aI2230
aI2783
aI2784
aI246
aI978
aI2435
aI30
aI51
aI2828
aI965
aI633
aI2398
aI585
aI2622
aI1724
aI2257
aI968
aI2829
aI1157
aI1343
aI2053
aI835
aI2254
aI2830
aI1582
aI2244
aI27
aI2021
aI2181
aI303
aI1251
aI2023
aI29
aI1414
aI2651
aI2064
aI289
aI2785
aI1658
aI1117
aI303
asI1423
(lp1427
I371
aI2059
asI1424
(lp1428
I764
aI709
asI1425
(lp1429
I919
asI1426
(lp1430
I1033
aI3153
asI1427
(lp1431
I2925
aI1343
asI1428
(lp1432
I3037
aI1884
asI1429
(lp1433
I1625
aI1853
aI2420
aI2147
aI1989
aI1759
aI152
aI43
aI1399
aI144
aI2421
aI1097
aI1398
aI1130
aI2110
aI2331
aI2422
aI2520
asI1430
(lp1434
I889
aI1973
asI1431
(lp1435
I64
aI1237
aI3
asI1432
(lp1436
I1160
asI1433
(lp1437
I3065
aI3064
asI1434
(lp1438
I204
aI101
asI1435
(lp1439
I2729
aI2898
aI2730
aI1854
aI567
asI1436
(lp1440
I1810
aI901
asI1437
(lp1441
I2259
aI812
asI1438
(lp1442
I457
aI1377
asI1439
(lp1443
I147
aI2638
aI661
aI428
aI2626
asI1440
(lp1444
I3034
aI953
aI2736
aI2124
asI1441
(lp1445
I2669
aI1762
aI2603
asI1442
(lp1446
I2437
asI1443
(lp1447
I61
aI2013
asI1444
(lp1448
I211
asI1445
(lp1449
I2401
aI2020
asI1446
(lp1450
I751
aI1574
asI1447
(lp1451
I28
aI2560
aI641
aI751
aI595
aI2811
asI1448
(lp1452
I2353
aI1971
aI2738
asI1449
(lp1453
I2606
aI1324
aI1147
asI1450
(lp1454
I1505
asI1451
(lp1455
I19
aI3308
asI1452
(lp1456
I345
asI1453
(lp1457
I1875
aI1625
aI198
asI1454
(lp1458
I109
asI1455
(lp1459
I2734
aI142
asI1456
(lp1460
I2188
aI2694
asI1457
(lp1461
I2955
aI2956
aI2644
aI381
aI2955
aI2156
asI1458
(lp1462
I2972
asI1459
(lp1463
I1459
aI1459
aI841
asI1460
(lp1464
I629
aI737
asI1461
(lp1465
I1302
aI2601
aI2215
aI2918
aI956
aI1271
aI1022
asI1462
(lp1466
I2039
aI1313
aI3246
asI1463
(lp1467
I2704
asI1464
(lp1468
I1551
aI541
asI1465
(lp1469
I2832
asI1466
(lp1470
I286
asI1467
(lp1471
I1097
asI1468
(lp1472
I2350
aI1867
asI1469
(lp1473
I920
aI2163
asI1470
(lp1474
I1422
aI633
asI1471
(lp1475
I682
aI2861
aI2954
aI603
aI1091
aI709
aI3128
aI2494
asI1472
(lp1476
I670
aI2646
aI3046
aI1813
aI2210
asI1473
(lp1477
I1212
aI2964
aI468
asI1474
(lp1478
I70
aI991
asI1475
(lp1479
I3264
asI1476
(lp1480
I2655
asI1477
(lp1481
I541
aI564
asI1478
(lp1482
I573
aI469
asI1479
(lp1483
I1479
aI1479
asI1480
(lp1484
I2782
aI2715
aI1214
aI303
aI1112
asI1481
(lp1485
I660
asI1482
(lp1486
I218
asI1483
(lp1487
I1821
aI1795
asI1484
(lp1488
I2113
aI1920
aI2063
aI905
aI2912
asI1485
(lp1489
I721
aI1135
asI1486
(lp1490
I1864
asI1487
(lp1491
I2138
aI1491
asI1488
(lp1492
I86
asI1489
(lp1493
I1805
asI1490
(lp1494
I2033
asI1491
(lp1495
I1767
aI666
aI1487
aI2060
asI1492
(lp1496
I2565
aI1625
asI1493
(lp1497
I2712
aI1894
aI13
aI1023
aI1167
aI2187
asI1494
(lp1498
I2239
asI1495
(lp1499
I1929
asI1496
(lp1500
I883
asI1497
(lp1501
I2336
asI1498
(lp1502
I515
asI1499
(lp1503
I3135
asI1500
(lp1504
I1500
aI1500
asI1501
(lp1505
I6
asI1502
(lp1506
I2201
asI1503
(lp1507
I1503
aI1503
aI1674
asI1504
(lp1508
I1933
aI1365
asI1505
(lp1509
I829
aI1450
aI2411
aI2411
aI3273
asI1506
(lp1510
I623
aI538
asI1507
(lp1511
I3001
asI1508
(lp1512
I461
asI1509
(lp1513
I3056
asI1510
(lp1514
I49
aI1253
asI1511
(lp1515
I2502
asI1512
(lp1516
I759
asI1513
(lp1517
I2300
asI1514
(lp1518
I61
asI1515
(lp1519
I2050
aI998
asI1516
(lp1520
I582
asI1517
(lp1521
I1875
aI2183
aI1580
aI847
aI2361
aI2362
asI1518
(lp1522
I2267
aI1518
aI1518
aI574
aI1109
asI1519
(lp1523
I3226
asI1520
(lp1524
I1520
aI1520
asI1521
(lp1525
I854
asI1522
(lp1526
I2245
aI2335
aI397
aI194
asI1523
(lp1527
I3169
aI3170
aI3171
aI3172
aI1285
asI1524
(lp1528
I3032
aI3064
asI1525
(lp1529
I582
asI1526
(lp1530
I1100
asI1527
(lp1531
I81
aI591
asI1528
(lp1532
I225
asI1529
(lp1533
I409
aI3199
aI1925
aI503
asI1530
(lp1534
I667
aI1099
asI1531
(lp1535
I1410
aI484
aI228
aI579
aI1210
aI300
asI1532
(lp1536
I450
aI1915
asI1533
(lp1537
I2927
aI113
asI1534
(lp1538
I1896
aI404
aI208
aI2703
aI1035
asI1535
(lp1539
I1763
asI1536
(lp1540
I319
aI2220
aI2220
aI1536
aI1536
aI265
aI2452
asI1537
(lp1541
I524
aI806
asI1538
(lp1542
I114
asI1539
(lp1543
I2653
asI1540
(lp1544
I2363
asI1541
(lp1545
I3100
asI1542
(lp1546
I2420
aI2558
asI1543
(lp1547
I2732
aI449
aI1286
aI2067
aI254
asI1544
(lp1548
I2895
asI1545
(lp1549
I2400
aI1000
aI3026
aI790
asI1546
(lp1550
I772
asI1547
(lp1551
I2432
asI1548
(lp1552
I3268
aI2271
asI1549
(lp1553
I1549
aI1549
asI1550
(lp1554
I2036
asI1551
(lp1555
I110
aI2269
aI1704
aI1464
aI2332
aI1704
aI3274
asI1552
(lp1556
I1552
aI1552
asI1553
(lp1557
I1237
asI1554
(lp1558
I943
aI3044
asI1555
(lp1559
I2469
aI667
aI1079
aI2015
asI1556
(lp1560
I1144
asI1557
(lp1561
I1028
aI2321
aI172
aI2322
aI709
aI3227
asI1558
(lp1562
I2331
asI1559
(lp1563
I1593
asI1560
(lp1564
I427
aI2559
aI1705
asI1561
(lp1565
I136
aI450
aI2228
asI1562
(lp1566
I1324
aI774
asI1563
(lp1567
I280
aI3062
asI1564
(lp1568
I1029
aI1029
asI1565
(lp1569
I670
asI1566
(lp1570
I135
asI1567
(lp1571
I16
aI314
aI2416
aI616
aI2204
aI1013
aI2655
aI886
aI2182
aI691
aI2925
aI965
aI968
aI2637
aI2418
aI1708
aI1117
asI1568
(lp1572
I2766
aI2680
aI2767
aI2485
asI1569
(lp1573
I908
aI2708
asI1570
(lp1574
I559
aI509
aI1202
aI2356
aI486
asI1571
(lp1575
I2055
aI3117
aI3118
aI3119
asI1572
(lp1576
I3049
asI1573
(lp1577
I802
asI1574
(lp1578
I1348
aI825
aI1446
asI1575
(lp1579
I2478
aI1944
aI501
aI2919
asI1576
(lp1580
I2174
asI1577
(lp1581
I2552
aI1119
aI1001
aI1882
asI1578
(lp1582
I28
asI1579
(lp1583
I1092
asI1580
(lp1584
I2360
aI2506
aI2880
aI2183
aI1517
aI2361
aI1640
aI2362
asI1581
(lp1585
I3242
asI1582
(lp1586
I1422
aI242
aI2032
aI2299
aI236
asI1583
(lp1587
I506
aI2387
aI2584
aI1843
aI517
aI1011
aI3080
asI1584
(lp1588
I2379
aI2380
aI946
asI1585
(lp1589
I483
aI1296
aI2770
aI813
aI1874
aI2771
aI2020
aI2779
aI1211
aI293
aI2462
asI1586
(lp1590
I1231
aI3241
aI562
asI1587
(lp1591
I2420
aI2147
aI1989
aI1399
aI2421
aI2110
aI2331
aI2422
aI1625
aI2919
asI1588
(lp1592
I2468
asI1589
(lp1593
I2453
aI1076
aI3272
asI1590
(lp1594
I1422
aI1943
asI1591
(lp1595
I1665
aI2293
aI2622
aI1130
aI770
aI982
asI1592
(lp1596
I456
asI1593
(lp1597
I1559
asI1594
(lp1598
I202
asI1595
(lp1599
I2945
asI1596
(lp1600
I283
aI1045
aI3252
aI3253
asI1597
(lp1601
I262
asI1598
(lp1602
I2285
asI1599
(lp1603
I2116
aI453
asI1600
(lp1604
I1183
aI1180
aI2848
aI336
aI3025
asI1601
(lp1605
I2700
asI1602
(lp1606
I1602
aI1602
asI1603
(lp1607
I1319
aI217
aI2867
asI1604
(lp1608
I3104
asI1605
(lp1609
I2925
aI1943
aI16
aI2415
aI314
aI912
aI2416
aI616
aI1013
aI850
aI968
aI622
aI2637
aI2418
aI373
aI1708
aI1117
asI1606
(lp1610
I2691
asI1607
(lp1611
I1034
aI2475
aI51
aI1422
asI1608
(lp1612
I2192
asI1609
(lp1613
I1877
aI1131
aI1625
asI1610
(lp1614
I3022
aI1744
aI1733
asI1611
(lp1615
I2071
asI1612
(lp1616
I2307
asI1613
(lp1617
I2727
aI690
aI2058
asI1614
(lp1618
I1975
aI1975
asI1615
(lp1619
I2646
asI1616
(lp1620
I934
aI160
aI1752
asI1617
(lp1621
I1034
aI2211
aI2927
aI2475
aI2926
aI52
aI1724
aI3014
asI1618
(lp1622
I1864
asI1619
(lp1623
I1044
aI2323
asI1620
(lp1624
I2440
aI1826
aI2245
aI2636
aI2562
aI494
aI1326
aI2631
aI429
aI2721
aI1087
aI1027
aI541
aI2335
aI304
aI2977
aI637
aI1817
aI808
aI1771
aI62
aI3026
aI194
asI1621
(lp1625
I856
aI530
asI1622
(lp1626
I224
aI150
aI12
asI1623
(lp1627
I1938
aI1627
asI1624
(lp1628
I3037
aI3038
asI1625
(lp1629
I1070
aI1587
aI1875
aI414
aI2429
aI1492
aI154
aI1609
aI2680
aI1666
aI1759
aI43
aI2638
aI1019
aI2632
aI2224
aI661
aI2681
aI2886
aI2621
aI1821
aI1965
aI1453
aI968
aI1097
aI875
aI1429
aI31
aI1251
asI1626
(lp1630
I1897
aI2856
asI1627
(lp1631
I1623
aI1938
asI1628
(lp1632
I2155
asI1629
(lp1633
I2473
aI1220
asI1630
(lp1634
I1422
aI451
aI2621
asI1631
(lp1635
I133
asI1632
(lp1636
I1632
aI1632
asI1633
(lp1637
I2622
asI1634
(lp1638
I2861
aI2866
aI2208
asI1635
(lp1639
I1386
aI1112
asI1636
(lp1640
I1876
asI1637
(lp1641
I259
asI1638
(lp1642
I951
asI1639
(lp1643
I102
asI1640
(lp1644
I1923
aI2183
aI1580
asI1641
(lp1645
I530
asI1642
(lp1646
I2474
asI1643
(lp1647
I3325
asI1644
(lp1648
I1034
aI2404
aI492
aI2782
aI1422
aI1214
aI453
aI1012
aI2021
aI1351
aI2247
aI1112
asI1645
(lp1649
I980
asI1646
(lp1650
I1898
asI1647
(lp1651
I147
aI755
aI428
aI773
aI2626
aI1112
asI1648
(lp1652
I2266
aI1288
asI1649
(lp1653
I1805
asI1650
(lp1654
I2888
aI337
aI120
asI1651
(lp1655
I487
aI734
aI3304
asI1652
(lp1656
I2733
asI1653
(lp1657
I1714
asI1654
(lp1658
I2312
asI1655
(lp1659
I434
aI2331
aI2506
aI216
aI2000
aI650
aI3209
asI1656
(lp1660
I455
aI1656
aI1656
asI1657
(lp1661
I2868
asI1658
(lp1662
I1422
asI1659
(lp1663
I1120
aI1659
aI1659
asI1660
(lp1664
I405
aI582
asI1661
(lp1665
I2272
asI1662
(lp1666
I1092
aI3185
asI1663
(lp1667
I2396
aI1422
aI346
asI1664
(lp1668
I3092
aI3297
asI1665
(lp1669
I1591
aI2633
aI1670
aI872
aI468
asI1666
(lp1670
I414
aI1989
aI152
aI1131
aI1230
aI1399
aI2435
aI2427
aI847
aI1130
aI2110
aI1625
asI1667
(lp1671
I2603
aI3286
asI1668
(lp1672
I154
aI1008
aI2399
aI1415
aI894
asI1669
(lp1673
I248
aI297
asI1670
(lp1674
I10
aI1665
aI3256
asI1671
(lp1675
I792
aI2400
asI1672
(lp1676
I2353
aI1971
aI1155
aI877
asI1673
(lp1677
I3112
asI1674
(lp1678
I1503
asI1675
(lp1679
I2543
aI1063
asI1676
(lp1680
I2554
aI471
aI2604
aI713
aI2588
asI1677
(lp1681
I1235
aI1737
aI156
aI1143
asI1678
(lp1682
I28
aI2631
aI2316
asI1679
(lp1683
I3295
asI1680
(lp1684
I309
asI1681
(lp1685
I1336
asI1682
(lp1686
I727
aI695
asI1683
(lp1687
I1836
aI2448
aI2449
aI2450
aI2451
aI2220
aI2452
asI1684
(lp1688
I455
aI430
asI1685
(lp1689
I3133
asI1686
(lp1690
I114
asI1687
(lp1691
I78
aI3220
aI1992
aI969
aI254
asI1688
(lp1692
I1914
asI1689
(lp1693
I1258
aI1258
asI1690
(lp1694
I2221
asI1691
(lp1695
I777
asI1692
(lp1696
I334
asI1693
(lp1697
I582
asI1694
(lp1698
I2486
aI1241
asI1695
(lp1699
I3090
aI2037
asI1696
(lp1700
I3114
aI1760
asI1697
(lp1701
I75
asI1698
(lp1702
I2466
aI1419
aI2586
aI1705
asI1699
(lp1703
I2369
aI904
aI1330
asI1700
(lp1704
I385
asI1701
(lp1705
I582
aI201
asI1702
(lp1706
I1774
aI136
aI1711
asI1703
(lp1707
I1010
asI1704
(lp1708
I1551
aI1551
aI110
aI2269
aI2332
aI472
aI541
asI1705
(lp1709
I427
aI2559
aI2114
aI1698
aI1560
aI2114
asI1706
(lp1710
I907
aI2270
asI1707
(lp1711
I1179
aI760
aI667
aI1079
asI1708
(lp1712
I2596
aI1567
aI2925
aI1943
aI622
aI1605
aI16
aI314
aI912
aI2416
aI616
aI622
aI2637
aI2418
aI373
aI1117
asI1709
(lp1713
I2948
aI1083
aI331
asI1710
(lp1714
I2215
aI2918
aI87
aI2112
asI1711
(lp1715
I1774
aI1702
asI1712
(lp1716
I701
asI1713
(lp1717
I140
asI1714
(lp1718
I1653
aI1869
asI1715
(lp1719
I784
asI1716
(lp1720
I947
asI1717
(lp1721
I629
aI2630
asI1718
(lp1722
I218
aI404
aI438
aI2433
aI208
aI2703
aI2705
asI1719
(lp1723
I2589
asI1720
(lp1724
I1173
aI659
asI1721
(lp1725
I2670
aI1959
aI2672
aI2473
aI1220
aI1393
asI1722
(lp1726
I2970
asI1723
(lp1727
I747
asI1724
(lp1728
I2253
aI2542
aI1422
aI1214
aI529
aI1958
aI1198
aI1617
asI1725
(lp1729
I715
aI2404
aI2264
aI773
aI2868
asI1726
(lp1730
I1411
aI2790
aI2368
asI1727
(lp1731
I1865
aI1865
asI1728
(lp1732
I3193
aI352
asI1729
(lp1733
I2345
aI505
asI1730
(lp1734
I2516
aI2795
asI1731
(lp1735
I2443
aI237
aI43
aI1275
aI2230
aI2774
aI1943
asI1732
(lp1736
I2033
asI1733
(lp1737
I3305
aI1123
aI3306
aI1610
asI1734
(lp1738
I61
aI2013
asI1735
(lp1739
I562
asI1736
(lp1740
I138
aI468
aI972
aI242
aI151
aI982
asI1737
(lp1741
I2243
aI1677
asI1738
(lp1742
I672
aI1156
asI1739
(lp1743
I1274
asI1740
(lp1744
I2638
aI661
asI1741
(lp1745
I643
asI1742
(lp1746
I2458
asI1743
(lp1747
I2033
asI1744
(lp1748
I1610
asI1745
(lp1749
I37
asI1746
(lp1750
I3071
aI371
aI1981
aI2339
asI1747
(lp1751
I2121
aI2390
asI1748
(lp1752
I102
asI1749
(lp1753
I1349
asI1750
(lp1754
I581
aI3321
asI1751
(lp1755
I2319
aI460
asI1752
(lp1756
I1616
asI1753
(lp1757
I582
asI1754
(lp1758
I999
asI1755
(lp1759
I2363
aI170
asI1756
(lp1760
I423
asI1757
(lp1761
I630
aI2319
aI3030
asI1758
(lp1762
I2253
aI416
aI2527
aI1417
aI2217
aI347
aI464
asI1759
(lp1763
I136
aI2621
aI2622
aI31
aI43
aI1918
aI1625
aI1429
aI2633
asI1760
(lp1764
I150
aI3114
aI12
aI1696
asI1761
(lp1765
I2565
aI1128
aI2429
asI1762
(lp1766
I1356
aI1441
asI1763
(lp1767
I1535
asI1764
(lp1768
I978
aI533
asI1765
(lp1769
I1765
aI1765
asI1766
(lp1770
I1991
aI3183
asI1767
(lp1771
I1491
aI1189
aI1208
aI2168
asI1768
(lp1772
I1964
aI104
aI2745
aI541
aI3274
asI1769
(lp1773
I1308
aI2767
asI1770
(lp1774
I148
aI1319
aI2867
asI1771
(lp1775
I1620
aI1778
asI1772
(lp1776
I1890
aI2067
aI2222
aI1822
aI254
asI1773
(lp1777
I343
asI1774
(lp1778
I1702
aI1711
asI1775
(lp1779
I1873
asI1776
(lp1780
I804
asI1777
(lp1781
I2224
asI1778
(lp1782
I3257
aI1771
asI1779
(lp1783
I497
aI832
aI2974
aI73
asI1780
(lp1784
I863
asI1781
(lp1785
I2659
asI1782
(lp1786
I2458
aI441
aI269
asI1783
(lp1787
I539
aI697
asI1784
(lp1788
I2231
aI3205
asI1785
(lp1789
I2346
asI1786
(lp1790
I570
asI1787
(lp1791
I2209
asI1788
(lp1792
I2251
asI1789
(lp1793
I812
asI1790
(lp1794
I621
asI1791
(lp1795
I1196
aI2819
aI2055
asI1792
(lp1796
I3265
asI1793
(lp1797
I375
asI1794
(lp1798
I914
asI1795
(lp1799
I1483
aI1821
aI859
asI1796
(lp1800
I886
asI1797
(lp1801
I637
asI1798
(lp1802
I2526
asI1799
(lp1803
I1811
asI1800
(lp1804
I2847
asI1801
(lp1805
I1003
aI1216
asI1802
(lp1806
I2174
aI1044
aI2323
aI189
asI1803
(lp1807
I858
asI1804
(lp1808
I2458
asI1805
(lp1809
I1489
aI1649
asI1806
(lp1810
I2804
aI2865
asI1807
(lp1811
I1086
asI1808
(lp1812
I473
aI3011
aI410
aI2202
aI3249
asI1809
(lp1813
I3249
aI500
aI227
aI266
asI1810
(lp1814
I901
aI1436
aI3037
asI1811
(lp1815
I2102
aI1799
aI1879
aI124
aI1292
aI2091
aI3198
asI1812
(lp1816
I2328
aI413
aI243
asI1813
(lp1817
I2184
aI3294
aI1472
asI1814
(lp1818
I2143
aI1168
asI1815
(lp1819
I2885
asI1816
(lp1820
I1005
asI1817
(lp1821
I450
aI1620
asI1818
(lp1822
I2030
aI615
aI1992
aI1072
asI1819
(lp1823
I109
asI1820
(lp1824
I1954
asI1821
(lp1825
I1625
aI1483
aI2200
aI549
aI1176
aI1795
asI1822
(lp1826
I1363
aI3220
aI3194
aI3006
aI508
aI2180
aI1903
aI3271
aI2222
aI1772
aI3107
aI1822
aI1822
aI254
aI784
aI33
asI1823
(lp1827
I195
aI1379
aI3045
asI1824
(lp1828
I1883
asI1825
(lp1829
I2443
aI1275
aI184
asI1826
(lp1830
I1620
asI1827
(lp1831
I3204
asI1828
(lp1832
I2406
aI443
aI2077
aI857
asI1829
(lp1833
I2035
aI119
aI1043
aI1352
asI1830
(lp1834
I522
asI1831
(lp1835
I2377
aI2626
aI2264
asI1832
(lp1836
I920
aI2163
asI1833
(lp1837
I7
aI108
asI1834
(lp1838
I1422
asI1835
(lp1839
I2113
aI1415
aI286
aI2063
aI2122
asI1836
(lp1840
I2447
aI2578
aI1116
aI1683
aI670
aI865
aI624
asI1837
(lp1841
I2811
asI1838
(lp1842
I2187
asI1839
(lp1843
I568
asI1840
(lp1844
I2348
aI2349
aI523
aI2349
asI1841
(lp1845
I1372
aI1193
asI1842
(lp1846
I2646
aI83
asI1843
(lp1847
I1583
aI1251
aI292
aI398
asI1844
(lp1848
I2460
asI1845
(lp1849
I1227
aI2746
aI44
asI1846
(lp1850
I1381
aI3247
asI1847
(lp1851
I1907
aI1151
aI2731
asI1848
(lp1852
I2401
asI1849
(lp1853
I2400
asI1850
(lp1854
I1933
asI1851
(lp1855
I3125
asI1852
(lp1856
I2018
asI1853
(lp1857
I2488
aI1009
aI2527
aI847
aI1064
aI347
aI464
aI138
aI1429
aI468
asI1854
(lp1858
I802
aI802
aI1435
asI1855
(lp1859
I2343
aI1123
asI1856
(lp1860
I2979
asI1857
(lp1861
I86
asI1858
(lp1862
I2543
aI3035
aI2031
aI602
asI1859
(lp1863
I2221
asI1860
(lp1864
I179
aI2092
asI1861
(lp1865
I2530
aI76
asI1862
(lp1866
I2582
aI2582
asI1863
(lp1867
I942
aI2368
asI1864
(lp1868
I1618
aI1486
aI2509
aI675
aI1222
asI1865
(lp1869
I3046
aI541
aI674
aI1727
aI2283
aI1727
aI1307
asI1866
(lp1870
I1016
aI2081
asI1867
(lp1871
I2357
aI2358
aI1468
aI2351
asI1868
(lp1872
I2729
aI1186
aI3068
aI1218
aI3068
asI1869
(lp1873
I1714
aI341
asI1870
(lp1874
I2945
asI1871
(lp1875
I2478
aI13
asI1872
(lp1876
I2655
asI1873
(lp1877
I1775
asI1874
(lp1878
I813
aI293
aI1585
asI1875
(lp1879
I2360
aI1989
aI1019
aI1131
aI113
aI2399
aI435
aI1453
aI2426
aI2427
aI1097
aI1517
aI847
aI2205
aI2428
aI1625
asI1876
(lp1880
I1636
asI1877
(lp1881
I1609
aI548
aI880
aI2196
aI1973
aI2401
asI1878
(lp1882
I2446
aI2936
aI310
asI1879
(lp1883
I1986
aI1333
aI394
aI75
aI607
aI322
aI1811
aI1097
aI1956
aI2205
asI1880
(lp1884
I3150
asI1881
(lp1885
I1881
aI1881
asI1882
(lp1886
I1577
asI1883
(lp1887
I557
aI1824
aI2678
asI1884
(lp1888
I1428
asI1885
(lp1889
I1373
asI1886
(lp1890
I1886
aI1886
asI1887
(lp1891
I2357
aI2358
aI2431
aI2233
aI576
aI2232
aI598
asI1888
(lp1892
I2093
asI1889
(lp1893
I2516
aI2751
aI329
asI1890
(lp1894
I2884
aI2628
aI2222
aI1772
asI1891
(lp1895
I974
aI3046
asI1892
(lp1896
I1345
asI1893
(lp1897
I639
asI1894
(lp1898
I1105
aI2648
aI2710
aI2711
aI1493
aI13
aI2052
aI1167
aI2584
aI1097
asI1895
(lp1899
I2383
asI1896
(lp1900
I218
aI404
aI72
aI438
aI2170
aI1146
aI1197
aI1145
aI1534
aI2702
aI2048
aI2703
aI997
aI2704
aI2705
aI2706
aI211
aI2707
aI2708
aI518
aI717
asI1897
(lp1901
I1626
asI1898
(lp1902
I1646
asI1899
(lp1903
I2798
asI1900
(lp1904
I3111
asI1901
(lp1905
I2648
aI1167
asI1902
(lp1906
I2976
aI2703
aI717
asI1903
(lp1907
I2493
aI2420
aI906
aI269
aI1822
aI54
asI1904
(lp1908
I167
aI2666
asI1905
(lp1909
I933
asI1906
(lp1910
I2127
aI3155
asI1907
(lp1911
I226
aI1847
aI1241
aI2005
aI3125
aI3232
asI1908
(lp1912
I3301
aI3302
asI1909
(lp1913
I823
asI1910
(lp1914
I2925
aI3129
asI1911
(lp1915
I121
asI1912
(lp1916
I28
aI2080
asI1913
(lp1917
I810
asI1914
(lp1918
I1688
asI1915
(lp1919
I450
aI1532
aI2302
aI544
aI1253
asI1916
(lp1920
I2351
aI390
asI1917
(lp1921
I2339
aI3282
asI1918
(lp1922
I2649
aI1995
aI307
aI1759
aI361
aI2444
aI2650
aI2797
aI875
asI1919
(lp1923
I2259
asI1920
(lp1924
I1484
asI1921
(lp1925
I2316
aI637
aI582
asI1922
(lp1926
I557
asI1923
(lp1927
I1640
aI2183
asI1924
(lp1928
I3147
asI1925
(lp1929
I1341
aI1529
asI1926
(lp1930
I2945
asI1927
(lp1931
I2550
aI191
asI1928
(lp1932
I2326
aI688
aI279
asI1929
(lp1933
I1495
asI1930
(lp1934
I384
asI1931
(lp1935
I898
asI1932
(lp1936
I3046
aI2447
aI1225
aI83
asI1933
(lp1937
I420
aI1504
aI1850
aI3008
aI1365
aI2539
asI1934
(lp1938
I2265
asI1935
(lp1939
I640
asI1936
(lp1940
I2974
asI1937
(lp1941
I2069
asI1938
(lp1942
I1623
aI1627
asI1939
(lp1943
I2447
aI1102
asI1940
(lp1944
I136
aI715
aI2404
aI2405
asI1941
(lp1945
I2998
asI1942
(lp1946
I23
aI268
asI1943
(lp1947
I2396
aI2226
aI314
aI2234
aI1590
aI2416
aI616
aI1013
aI527
aI2823
aI307
aI1731
aI1281
aI887
aI2775
aI965
aI2398
aI585
aI968
aI1157
aI1343
aI622
aI27
aI1605
aI1054
aI302
aI289
aI2418
aI1708
aI1117
asI1944
(lp1948
I506
aI2534
aI2535
aI532
aI65
aI1400
aI1575
aI1011
asI1945
(lp1949
I540
asI1946
(lp1950
I2899
asI1947
(lp1951
I753
asI1948
(lp1952
I2350
aI357
aI999
aI1373
asI1949
(lp1953
I3208
aI3075
aI959
aI970
asI1950
(lp1954
I1079
asI1951
(lp1955
I2988
asI1952
(lp1956
I1110
asI1953
(lp1957
I2848
aI2041
asI1954
(lp1958
I1820
asI1955
(lp1959
I3097
asI1956
(lp1960
I1879
aI2759
aI1965
aI2964
asI1957
(lp1961
I2171
asI1958
(lp1962
I529
aI1724
asI1959
(lp1963
I1721
asI1960
(lp1964
I67
aI671
asI1961
(lp1965
I755
aI595
asI1962
(lp1966
I1371
aI3031
asI1963
(lp1967
I842
asI1964
(lp1968
I1768
aI104
asI1965
(lp1969
I450
aI1625
aI2886
aI2488
aI2964
aI1956
aI1251
asI1966
(lp1970
I530
asI1967
(lp1971
I2312
aI285
aI2672
aI721
aI637
aI2066
aI582
asI1968
(lp1972
I230
asI1969
(lp1973
I3307
asI1970
(lp1974
I811
aI2836
aI2909
asI1971
(lp1975
I2373
aI2062
aI577
aI1448
aI177
aI1030
aI2354
aI1672
aI2479
asI1972
(lp1976
I3245
asI1973
(lp1977
I1877
aI2799
aI1430
asI1974
(lp1978
I3313
asI1975
(lp1979
I1614
aI1614
asI1976
(lp1980
I2827
asI1977
(lp1981
I933
asI1978
(lp1982
I1403
asI1979
(lp1983
I2800
aI1060
aI679
asI1980
(lp1984
I2655
asI1981
(lp1985
I1193
aI1260
aI3020
aI3071
aI371
aI1369
aI1746
aI2340
aI3312
asI1982
(lp1986
I470
asI1983
(lp1987
I1111
aI3152
asI1984
(lp1988
I2989
asI1985
(lp1989
I2909
asI1986
(lp1990
I2594
aI1879
aI2711
asI1987
(lp1991
I2174
aI709
asI1988
(lp1992
I2408
asI1989
(lp1993
I1587
aI1875
aI1666
aI2426
aI2427
aI3027
aI1429
asI1990
(lp1994
I1093
aI2424
aI2161
asI1991
(lp1995
I1766
aI364
aI209
aI348
asI1992
(lp1996
I1818
aI455
aI91
aI123
aI2347
aI2819
aI253
aI884
aI798
aI3139
aI1687
asI1993
(lp1997
I1199
asI1994
(lp1998
I165
asI1995
(lp1999
I1918
aI2089
asI1996
(lp2000
I2880
aI435
asI1997
(lp2001
I2107
aI1997
aI1997
aI2264
aI585
asI1998
(lp2002
I572
asI1999
(lp2003
I2212
aI2578
aI865
asI2000
(lp2004
I1655
aI2635
asI2001
(lp2005
I198
asI2002
(lp2006
I2398
asI2003
(lp2007
I161
asI2004
(lp2008
I3143
asI2005
(lp2009
I1907
aI2713
aI2731
aI567
asI2006
(lp2010
I987
asI2007
(lp2011
I3269
aI3270
asI2008
(lp2012
I2818
asI2009
(lp2013
I2009
aI2009
aI58
aI284
asI2010
(lp2014
I943
aI3044
asI2011
(lp2015
I2076
aI439
asI2012
(lp2016
I2746
asI2013
(lp2017
I1443
aI1734
asI2014
(lp2018
I3088
aI2172
asI2015
(lp2019
I1555
aI278
asI2016
(lp2020
I2569
asI2017
(lp2021
I2174
aI2410
asI2018
(lp2022
I1852
asI2019
(lp2023
I870
asI2020
(lp2024
I483
aI1445
aI2510
aI1585
asI2021
(lp2025
I1422
aI1644
aI887
aI835
aI27
aI2023
aI2651
aI895
asI2022
(lp2026
I2273
aI3071
aI3312
asI2023
(lp2027
I1290
aI2782
aI1422
aI1214
aI229
aI1012
aI2021
aI27
aI895
aI2282
asI2024
(lp2028
I850
asI2025
(lp2029
I494
aI304
aI2977
asI2026
(lp2030
I3279
asI2027
(lp2031
I24
aI2781
asI2028
(lp2032
I707
aI429
aI2721
asI2029
(lp2033
I3205
asI2030
(lp2034
I1818
asI2031
(lp2035
I3035
aI1858
asI2032
(lp2036
I242
aI1582
aI2299
asI2033
(lp2037
I1732
aI1743
aI1490
aI2474
asI2034
(lp2038
I11
asI2035
(lp2039
I1829
aI700
asI2036
(lp2040
I1550
asI2037
(lp2041
I3090
aI1695
asI2038
(lp2042
I2907
asI2039
(lp2043
I1462
asI2040
(lp2044
I2957
asI2041
(lp2045
I1165
aI1953
aI2462
aI3224
asI2042
(lp2046
I2303
asI2043
(lp2047
I78
asI2044
(lp2048
I2518
asI2045
(lp2049
I2783
asI2046
(lp2050
I984
asI2047
(lp2051
I1422
aI2991
asI2048
(lp2052
I1896
aI2710
asI2049
(lp2053
I574
asI2050
(lp2054
I2587
aI1515
aI3304
asI2051
(lp2055
I2465
asI2052
(lp2056
I1894
aI2900
aI1094
asI2053
(lp2057
I1422
aI1214
aI453
asI2054
(lp2058
I1087
aI1221
aI1046
asI2055
(lp2059
I1791
aI1571
asI2056
(lp2060
I3243
asI2057
(lp2061
I1130
aI25
asI2058
(lp2062
I1287
aI2727
aI1613
asI2059
(lp2063
I28
aI1423
aI142
asI2060
(lp2064
I1491
aI1189
aI1208
asI2061
(lp2065
I366
asI2062
(lp2066
I2378
aI1971
aI2062
aI2062
aI1030
aI3160
asI2063
(lp2067
I61
aI796
aI1484
aI548
aI2912
aI2113
aI247
aI2196
aI1835
asI2064
(lp2068
I2396
aI1422
asI2065
(lp2069
I2686
aI3206
asI2066
(lp2070
I637
aI2562
aI1967
aI808
aI582
aI2189
asI2067
(lp2071
I1411
aI2499
aI2732
aI2790
aI2733
aI1543
aI2222
aI1772
aI266
aI254
asI2068
(lp2072
I148
aI2068
aI2068
asI2069
(lp2073
I1937
asI2070
(lp2074
I2736
asI2071
(lp2075
I1611
asI2072
(lp2076
I2943
asI2073
(lp2077
I2592
aI1019
aI347
asI2074
(lp2078
I114
asI2075
(lp2079
I3077
asI2076
(lp2080
I2011
aI189
asI2077
(lp2081
I1828
asI2078
(lp2082
I2078
aI2078
aI1374
asI2079
(lp2083
I233
asI2080
(lp2084
I577
aI2661
aI2662
aI2346
aI135
aI1912
asI2081
(lp2085
I1866
aI769
asI2082
(lp2086
I1038
aI2957
asI2083
(lp2087
I250
aI2106
asI2084
(lp2088
I2197
asI2085
(lp2089
I1002
asI2086
(lp2090
I1159
asI2087
(lp2091
I891
asI2088
(lp2092
I1366
aI247
asI2089
(lp2093
I79
aI1995
aI2217
aI680
aI468
asI2090
(lp2094
I2949
asI2091
(lp2095
I1811
asI2092
(lp2096
I1860
aI2436
aI1298
aI3222
aI2722
asI2093
(lp2097
I1888
asI2094
(lp2098
I2974
aI2975
asI2095
(lp2099
I2245
aI1227
aI2335
asI2096
(lp2100
I2958
asI2097
(lp2101
I2564
aI962
aI993
aI2435
aI968
aI213
aI2774
aI2925
aI2829
asI2098
(lp2102
I980
asI2099
(lp2103
I459
aI757
asI2100
(lp2104
I582
asI2101
(lp2105
I2229
asI2102
(lp2106
I1811
asI2103
(lp2107
I2103
aI2103
aI390
asI2104
(lp2108
I3276
aI938
asI2105
(lp2109
I390
aI600
asI2106
(lp2110
I2083
asI2107
(lp2111
I1997
aI2398
asI2108
(lp2112
I487
aI1021
asI2109
(lp2113
I2906
asI2110
(lp2114
I1587
aI1666
aI144
aI1398
aI1429
aI1130
asI2111
(lp2115
I389
asI2112
(lp2116
I1033
aI1710
aI1307
asI2113
(lp2117
I61
aI1484
aI2912
aI2063
aI1835
asI2114
(lp2118
I427
aI2559
aI1705
aI1705
asI2115
(lp2119
I2782
aI1422
aI2967
asI2116
(lp2120
I1422
aI1599
aI586
aI303
asI2117
(lp2121
I2892
asI2118
(lp2122
I1344
asI2119
(lp2123
I55
aI796
aI2196
asI2120
(lp2124
I3009
asI2121
(lp2125
I2390
aI1351
aI1747
asI2122
(lp2126
I2399
aI115
aI1835
asI2123
(lp2127
I899
asI2124
(lp2128
I765
aI1440
asI2125
(lp2129
I2821
asI2126
(lp2130
I626
asI2127
(lp2131
I2841
aI1906
asI2128
(lp2132
I755
aI2667
aI2822
aI1071
asI2129
(lp2133
I426
asI2130
(lp2134
I2478
aI103
aI2130
aI2130
asI2131
(lp2135
I2131
aI2131
asI2132
(lp2136
I2275
aI2631
aI634
aI2899
asI2133
(lp2137
I934
aI160
asI2134
(lp2138
I624
aI582
aI2911
asI2135
(lp2139
I3113
asI2136
(lp2140
I2505
aI914
asI2137
(lp2141
I7
aI108
asI2138
(lp2142
I1487
asI2139
(lp2143
I1422
asI2140
(lp2144
I2548
aI22
aI743
asI2141
(lp2145
I2854
aI292
asI2142
(lp2146
I2971
aI1331
asI2143
(lp2147
I1814
asI2144
(lp2148
I2250
asI2145
(lp2149
I903
asI2146
(lp2150
I2500
asI2147
(lp2151
I1587
aI2421
aI1429
asI2148
(lp2152
I1011
asI2149
(lp2153
I2789
asI2150
(lp2154
I17
asI2151
(lp2155
I2717
aI493
asI2152
(lp2156
I1145
asI2153
(lp2157
I2345
aI465
aI3202
aI3294
asI2154
(lp2158
I3215
aI429
aI2993
asI2155
(lp2159
I1628
aI3188
aI380
asI2156
(lp2160
I1457
asI2157
(lp2161
I370
asI2158
(lp2162
I100
aI1026
asI2159
(lp2163
I1320
aI2894
aI2895
asI2160
(lp2164
I2476
aI792
asI2161
(lp2165
I1093
aI1990
aI2424
asI2162
(lp2166
I2622
asI2163
(lp2167
I1832
aI526
aI2547
aI1469
asI2164
(lp2168
I1327
asI2165
(lp2169
I2561
asI2166
(lp2170
I16
aI314
aI2416
aI616
aI2204
aI1013
aI691
aI965
aI968
aI2637
aI2418
aI1117
asI2167
(lp2171
I3131
asI2168
(lp2172
I1767
asI2169
(lp2173
I191
aI3276
asI2170
(lp2174
I1896
aI2703
asI2171
(lp2175
I1957
asI2172
(lp2176
I2014
asI2173
(lp2177
I1390
asI2174
(lp2178
I1802
aI1987
aI2017
aI2413
aI2439
aI98
aI1576
aI241
aI709
aI466
aI1359
aI620
aI2861
aI2509
aI3138
aI1264
asI2175
(lp2179
I2307
asI2176
(lp2180
I917
aI2853
asI2177
(lp2181
I860
asI2178
(lp2182
I861
aI3240
asI2179
(lp2183
I405
aI582
asI2180
(lp2184
I3107
aI1822
asI2181
(lp2185
I1422
aI2828
aI492
aI686
aI835
aI2181
aI2181
asI2182
(lp2186
I886
aI693
aI850
aI1567
asI2183
(lp2187
I1923
aI1580
aI2311
aI1517
aI2361
aI1640
asI2184
(lp2188
I1813
aI1364
asI2185
(lp2189
I3149
aI2206
aI361
aI48
aI590
aI2282
aI3150
asI2186
(lp2190
I1184
asI2187
(lp2191
I1838
aI1493
asI2188
(lp2192
I1456
asI2189
(lp2193
I3215
aI2740
aI1087
aI2921
aI2776
aI637
aI2066
aI3017
aI379
aI92
aI106
asI2190
(lp2194
I2207
asI2191
(lp2195
I560
asI2192
(lp2196
I1608
asI2193
(lp2197
I2742
asI2194
(lp2198
I2194
aI2194
asI2195
(lp2199
I2566
asI2196
(lp2200
I1877
aI450
aI138
aI2507
aI1136
aI2063
aI242
aI2217
aI930
aI968
aI2119
aI2519
aI3266
aI468
asI2197
(lp2201
I2084
asI2198
(lp2202
I102
asI2199
(lp2203
I677
asI2200
(lp2204
I1821
aI2435
asI2201
(lp2205
I1502
asI2202
(lp2206
I1808
aI843
aI2524
asI2203
(lp2207
I476
asI2204
(lp2208
I2596
aI2166
aI413
aI1567
asI2205
(lp2209
I1875
aI1879
aI847
asI2206
(lp2210
I2868
aI2185
aI590
asI2207
(lp2211
I2532
aI2190
asI2208
(lp2212
I3128
aI1634
asI2209
(lp2213
I1787
aI2554
aI2604
aI2555
aI863
asI2210
(lp2214
I1239
aI3153
aI1472
asI2211
(lp2215
I1232
aI1617
asI2212
(lp2216
I1999
aI2578
aI865
aI566
asI2213
(lp2217
I739
asI2214
(lp2218
I3290
aI452
aI652
asI2215
(lp2219
I87
aI1461
aI1710
asI2216
(lp2220
I786
asI2217
(lp2221
I796
aI273
aI2645
aI1417
aI2089
aI396
aI1758
aI2196
aI151
aI2519
aI2633
aI468
asI2218
(lp2222
I638
aI923
aI194
asI2219
(lp2223
I2339
aI1260
aI723
asI2220
(lp2224
I2447
aI1683
aI319
aI1536
aI1536
aI265
asI2221
(lp2225
I1859
aI1690
asI2222
(lp2226
I1890
aI2067
aI1772
aI1822
aI254
asI2223
(lp2227
I1139
asI2224
(lp2228
I1777
aI994
aI2675
aI1399
aI2676
aI1625
asI2225
(lp2229
I578
asI2226
(lp2230
I962
aI1281
aI1232
aI2435
aI968
aI2361
aI1176
aI1943
asI2227
(lp2231
I3080
aI321
asI2228
(lp2232
I1561
aI38
aI49
aI148
aI682
aI2228
aI2228
aI491
aI2363
aI170
aI2364
asI2229
(lp2233
I2101
asI2230
(lp2234
I2782
aI1422
aI1214
aI307
aI1731
aI2784
aI2622
aI2860
asI2231
(lp2235
I1784
asI2232
(lp2236
I1062
aI1887
asI2233
(lp2237
I2372
aI1887
aI458
asI2234
(lp2238
I1281
aI965
aI968
aI1422
aI2829
aI1943
asI2235
(lp2239
I744
aI744
asI2236
(lp2240
I481
asI2237
(lp2241
I3269
aI422
aI1319
aI2867
asI2238
(lp2242
I344
asI2239
(lp2243
I2632
aI1494
asI2240
(lp2244
I1364
asI2241
(lp2245
I718
asI2242
(lp2246
I992
asI2243
(lp2247
I1737
aI1402
asI2244
(lp2248
I1422
aI2868
asI2245
(lp2249
I1522
aI1235
aI2095
aI1326
aI70
aI1620
asI2246
(lp2250
I1194
asI2247
(lp2251
I1644
aI887
asI2248
(lp2252
I2285
asI2249
(lp2253
I1239
aI582
asI2250
(lp2254
I2399
aI2144
asI2251
(lp2255
I1788
aI3295
asI2252
(lp2256
I3231
aI778
aI853
aI3232
asI2253
(lp2257
I1758
aI1724
asI2254
(lp2258
I755
aI1422
aI453
aI3093
aI388
aI219
aI303
asI2255
(lp2259
I2486
aI3221
asI2256
(lp2260
I665
asI2257
(lp2261
I2596
aI755
aI1422
aI2925
aI2829
asI2258
(lp2262
I582
asI2259
(lp2263
I1919
aI332
aI2278
aI545
aI2450
aI1256
aI1046
aI1437
asI2260
(lp2264
I662
asI2261
(lp2265
I777
asI2262
(lp2266
I3295
aI182
asI2263
(lp2267
I2408
asI2264
(lp2268
I715
aI147
aI2638
aI1725
aI661
aI428
aI2942
aI1997
aI1831
aI773
asI2265
(lp2269
I1934
asI2266
(lp2270
I865
aI1648
asI2267
(lp2271
I1518
aI574
asI2268
(lp2272
I909
asI2269
(lp2273
I1551
aI2332
aI1704
aI95
aI472
aI541
aI3274
asI2270
(lp2274
I1706
asI2271
(lp2275
I3268
aI1548
aI82
asI2272
(lp2276
I1661
asI2273
(lp2277
I2022
asI2274
(lp2278
I499
asI2275
(lp2279
I2132
aI2899
aI421
asI2276
(lp2280
I1348
asI2277
(lp2281
I255
aI2655
aI886
asI2278
(lp2282
I2259
aI2646
aI3046
asI2279
(lp2283
I2279
aI2279
asI2280
(lp2284
I1249
asI2281
(lp2285
I2651
asI2282
(lp2286
I644
aI2829
aI229
aI1012
aI2185
aI887
aI27
aI2023
asI2283
(lp2287
I1865
asI2284
(lp2288
I98
aI2297
asI2285
(lp2289
I1598
aI2248
asI2286
(lp2290
I2965
asI2287
(lp2291
I534
asI2288
(lp2292
I2541
asI2289
(lp2293
I2907
asI2290
(lp2294
I619
aI617
asI2291
(lp2295
I2828
asI2292
(lp2296
I950
aI504
aI2913
aI2950
aI624
asI2293
(lp2297
I1591
aI724
asI2294
(lp2298
I2294
aI2294
asI2295
(lp2299
I450
aI542
asI2296
(lp2300
I783
aI205
aI2646
asI2297
(lp2301
I98
aI2284
asI2298
(lp2302
I953
asI2299
(lp2303
I450
aI242
aI1582
aI2032
aI151
aI468
asI2300
(lp2304
I376
aI1513
asI2301
(lp2305
I915
asI2302
(lp2306
I1915
aI544
asI2303
(lp2307
I2042
asI2304
(lp2308
I2528
asI2305
(lp2309
I797
aI942
asI2306
(lp2310
I1186
aI3156
asI2307
(lp2311
I2175
aI1612
asI2308
(lp2312
I2341
aI2698
asI2309
(lp2313
I2334
aI3167
aI3168
aI791
asI2310
(lp2314
I731
asI2311
(lp2315
I2880
aI1242
aI2183
aI981
aI2361
asI2312
(lp2316
I28
aI1967
aI1654
aI2401
asI2313
(lp2317
I28
aI878
asI2314
(lp2318
I28
aI471
aI2739
aI713
aI2588
aI2739
aI713
aI2339
asI2315
(lp2319
I28
aI136
asI2316
(lp2320
I28
aI2547
aI2383
aI1311
aI392
aI1921
aI2673
aI1678
aI80
aI923
aI819
asI2317
(lp2321
I436
asI2318
(lp2322
I893
asI2319
(lp2323
I1751
aI630
aI1757
asI2320
(lp2324
I2321
aI172
aI2322
aI709
aI1028
aI3227
asI2321
(lp2325
I2320
aI620
aI1557
asI2322
(lp2326
I2320
aI1381
aI172
aI1557
asI2323
(lp2327
I1802
aI2434
aI1044
aI1619
aI1395
asI2324
(lp2328
I55
aI2506
asI2325
(lp2329
I593
aI1213
asI2326
(lp2330
I279
aI1928
asI2327
(lp2331
I198
asI2328
(lp2332
I1031
aI1812
asI2329
(lp2333
I1031
aI2682
aI1180
aI2613
aI2614
aI716
asI2330
(lp2334
I1011
asI2331
(lp2335
I1655
aI1587
aI2427
aI1429
aI1130
aI25
aI1558
asI2332
(lp2336
I1551
aI2269
aI1704
asI2333
(lp2337
I2334
asI2334
(lp2338
I2333
aI2538
aI2309
asI2335
(lp2339
I1522
aI1620
aI1235
aI2095
aI1326
aI70
asI2336
(lp2340
I1497
asI2337
(lp2341
I762
aI2430
asI2338
(lp2342
I2339
aI2340
asI2339
(lp2343
I2338
aI2219
aI2463
aI815
aI362
aI1419
aI1917
aI736
aI2314
aI3071
aI1746
aI1049
aI3282
asI2340
(lp2344
I2338
aI362
aI1981
asI2341
(lp2345
I49
aI2308
aI2342
asI2342
(lp2346
I2341
aI66
aI2878
aI3045
asI2343
(lp2347
I942
aI1123
aI1084
aI1855
aI1084
asI2344
(lp2348
I1164
asI2345
(lp2349
I465
aI1410
aI2346
aI2347
aI1729
aI2153
asI2346
(lp2350
I2345
aI1785
aI2080
asI2347
(lp2351
I2345
aI1992
asI2348
(lp2352
I1840
aI282
aI1224
aI3040
aI1163
aI3041
aI1163
aI2349
asI2349
(lp2353
I1840
aI1840
aI2348
aI523
aI523
asI2350
(lp2354
I357
aI1468
aI2351
aI357
aI1948
asI2351
(lp2355
I2350
aI1867
aI357
aI2372
aI999
aI1916
asI2352
(lp2356
I1268
aI2407
aI431
aI696
aI869
asI2353
(lp2357
I1155
aI877
aI1379
aI1448
aI1030
aI2354
aI1672
asI2354
(lp2358
I2353
aI1971
aI1030
asI2355
(lp2359
I2356
asI2356
(lp2360
I2355
aI1202
aI1570
aI486
asI2357
(lp2361
I1867
aI2358
aI1887
asI2358
(lp2362
I1867
aI2357
aI458
aI2431
aI2652
aI1887
asI2359
(lp2363
I2359
aI2359
asI2360
(lp2364
I1580
aI847
aI2361
aI2362
aI1875
asI2361
(lp2365
I2360
aI2226
aI2443
aI2506
aI1275
aI2880
aI549
aI2183
aI434
aI1517
aI1580
aI2311
asI2362
(lp2366
I2360
aI2506
aI434
aI1517
aI1580
asI2363
(lp2367
I881
aI1755
aI1540
aI2228
aI3164
aI3164
asI2364
(lp2368
I881
aI2228
asI2365
(lp2369
I74
aI3163
asI2366
(lp2370
I1411
aI2790
aI954
aI1286
aI78
aI3286
asI2367
(lp2371
I1411
aI2790
aI3152
aI578
aI2541
aI2549
asI2368
(lp2372
I1411
aI2790
aI2943
aI374
aI1726
aI1863
asI2369
(lp2373
I904
aI1330
aI2370
aI2371
aI1264
aI1699
aI709
asI2370
(lp2374
I2369
aI69
asI2371
(lp2375
I2369
aI2874
aI904
aI1330
aI2371
aI2371
asI2372
(lp2376
I2373
aI2374
aI2233
aI1030
aI2351
aI2375
asI2373
(lp2377
I2372
aI1971
asI2374
(lp2378
I2372
asI2375
(lp2379
I2372
aI761
aI1155
aI877
aI1379
aI781
asI2376
(lp2380
I625
asI2377
(lp2381
I1831
aI816
aI937
asI2378
(lp2382
I2062
aI54
asI2379
(lp2383
I1584
aI2380
aI946
asI2380
(lp2384
I2379
aI2402
aI1584
aI520
aI2534
aI618
asI2381
(lp2385
I1396
aI1282
aI2382
asI2382
(lp2386
I2381
aI1144
asI2383
(lp2387
I1895
aI2316
asI2384
(lp2388
I583
asI2385
(lp2389
I663
aI756
aI2386
aI2893
asI2386
(lp2390
I2385
asI2387
(lp2391
I1583
asI2388
(lp2392
I38
aI2389
aI446
asI2389
(lp2393
I2388
aI1419
asI2390
(lp2394
I2121
aI1747
asI2391
(lp2395
I234
aI582
asI2392
(lp2396
I2393
asI2393
(lp2397
I2392
aI1297
asI2394
(lp2398
I2395
asI2395
(lp2399
I2394
aI2460
asI2396
(lp2400
I2397
aI528
aI1342
aI1663
aI691
aI1122
aI2398
aI2064
aI1422
aI1943
asI2397
(lp2401
I2396
asI2398
(lp2402
I2396
aI237
aI2107
aI1422
aI1214
aI2925
aI307
aI1251
aI2829
aI1943
aI1343
aI2002
asI2399
(lp2403
I1070
aI1875
aI350
aI2861
aI1668
aI2122
aI2250
asI2400
(lp2404
I1671
aI1849
aI1326
aI3089
aI1000
aI1545
aI567
asI2401
(lp2405
I1877
aI2312
aI1445
aI1848
aI2924
aI2959
aI286
asI2402
(lp2406
I520
aI2380
asI2403
(lp2407
I1106
asI2404
(lp2408
I715
aI1644
aI492
aI887
aI147
aI2638
aI1725
aI661
aI428
aI1940
aI2919
asI2405
(lp2409
I715
aI147
aI2638
aI661
aI428
aI1940
aI377
asI2406
(lp2410
I1299
aI1828
aI443
aI857
asI2407
(lp2411
I2352
asI2408
(lp2412
I1988
aI2263
asI2409
(lp2413
I164
asI2410
(lp2414
I2017
asI2411
(lp2415
I829
aI1505
aI1505
aI68
aI3273
asI2412
(lp2416
I552
aI1352
asI2413
(lp2417
I2174
aI620
asI2414
(lp2418
I1152
aI2704
aI81
aI591
aI558
asI2415
(lp2419
I16
aI616
aI2597
aI1605
asI2416
(lp2420
I16
aI912
aI2490
aI962
aI2166
aI2597
aI1567
aI1943
aI622
aI1605
aI373
aI1708
asI2417
(lp2421
I16
aI2597
aI691
aI2637
asI2418
(lp2422
I16
aI2166
aI2597
aI1567
aI1943
aI622
aI1605
aI2490
aI962
aI1708
asI2419
(lp2423
I986
asI2420
(lp2424
I1587
aI1542
aI1903
aI2558
aI1429
aI746
asI2421
(lp2425
I1587
aI827
aI2147
aI1429
aI122
asI2422
(lp2426
I1587
aI2655
aI2427
aI1429
aI263
aI705
aI1130
asI2423
(lp2427
I1093
aI2424
asI2424
(lp2428
I1093
aI1990
aI2423
aI2424
aI2424
aI2425
aI2161
asI2425
(lp2429
I1093
aI3011
aI2424
asI2426
(lp2430
I1875
aI1989
aI2426
aI2426
aI816
aI3027
asI2427
(lp2431
I1875
aI1666
aI1989
aI993
aI1399
aI1097
aI1398
aI2331
aI2422
aI3028
asI2428
(lp2432
I1875
aI2428
aI2428
aI76
asI2429
(lp2433
I414
aI2565
aI1761
aI1625
asI2430
(lp2434
I2337
asI2431
(lp2435
I2358
aI1887
asI2432
(lp2436
I1547
asI2433
(lp2437
I218
aI1718
aI208
asI2434
(lp2438
I2434
aI2434
aI976
aI1222
aI1044
aI2323
aI353
aI885
aI189
aI2654
aI353
asI2435
(lp2439
I2226
aI2488
aI1666
aI1422
aI2882
aI2564
aI2097
aI2200
aI1176
aI3074
asI2436
(lp2440
I179
aI2092
asI2437
(lp2441
I1442
asI2438
(lp2442
I1203
aI664
asI2439
(lp2443
I2174
aI620
asI2440
(lp2444
I2441
aI412
aI1620
aI637
asI2441
(lp2445
I2440
asI2442
(lp2446
I1155
aI877
aI1379
aI177
aI2687
asI2443
(lp2447
I985
aI1015
aI1825
aI1731
aI2444
aI677
aI2361
aI2506
asI2444
(lp2448
I2443
aI1275
aI1918
aI361
aI1422
aI1214
aI2649
aI2650
asI2445
(lp2449
I673
aI2955
aI2957
asI2446
(lp2450
I1878
asI2447
(lp2451
I1836
aI2448
aI2449
aI2450
aI2451
aI2220
aI2452
aI1932
aI582
aI1939
asI2448
(lp2452
I2447
aI1683
asI2449
(lp2453
I2447
aI1683
asI2450
(lp2454
I2447
aI1683
aI2259
aI2646
asI2451
(lp2455
I2447
aI1683
asI2452
(lp2456
I2447
aI1683
aI265
aI1385
aI1536
asI2453
(lp2457
I1589
aI3156
asI2454
(lp2458
I2454
aI2454
aI890
asI2455
(lp2459
I49
aI2861
aI2866
aI1253
asI2456
(lp2460
I2457
asI2457
(lp2461
I2456
asI2458
(lp2462
I1804
aI2459
aI1782
aI979
aI2460
aI988
aI1742
aI2461
aI604
asI2459
(lp2463
I2458
asI2460
(lp2464
I2458
aI3142
aI2395
aI1844
asI2461
(lp2465
I2458
asI2462
(lp2466
I1165
aI1585
aI2041
aI3224
asI2463
(lp2467
I1049
aI2339
aI371
asI2464
(lp2468
I642
aI3120
aI567
asI2465
(lp2469
I2465
aI2465
aI2051
asI2466
(lp2470
I39
aI744
aI1698
asI2467
(lp2471
I1155
aI877
asI2468
(lp2472
I1588
asI2469
(lp2473
I2470
aI1555
aI278
asI2470
(lp2474
I2469
asI2471
(lp2475
I891
asI2472
(lp2476
I2473
aI1220
asI2473
(lp2477
I2472
aI2670
aI2672
aI1721
aI2868
aI1629
asI2474
(lp2478
I2033
aI150
aI12
aI1642
asI2475
(lp2479
I1034
aI1607
aI2782
aI1422
aI1214
aI1034
aI220
aI453
aI2925
aI2829
aI1012
aI1112
aI1617
asI2476
(lp2480
I2160
aI792
asI2477
(lp2481
I427
aI2559
aI536
aI840
asI2478
(lp2482
I1871
aI975
aI1575
aI2130
aI2919
asI2479
(lp2483
I1971
aI781
asI2480
(lp2484
I1261
aI2480
aI2480
aI2481
asI2481
(lp2485
I1261
aI2596
aI2597
aI2480
aI691
asI2482
(lp2486
I560
aI1245
asI2483
(lp2487
I1251
aI695
asI2484
(lp2488
I565
asI2485
(lp2489
I214
aI1568
aI2767
asI2486
(lp2490
I1694
aI2255
aI567
asI2487
(lp2491
I2488
aI2489
aI150
aI138
aI12
aI839
asI2488
(lp2492
I2487
aI1853
aI2435
aI138
aI755
aI1965
asI2489
(lp2493
I2487
asI2490
(lp2494
I912
aI2416
aI1422
aI1025
aI2418
aI373
asI2491
(lp2495
I2492
asI2492
(lp2496
I2491
aI2733
aI669
aI78
aI3249
asI2493
(lp2497
I1903
asI2494
(lp2498
I682
aI2861
aI2954
aI3128
aI1471
aI2494
aI2494
asI2495
(lp2499
I649
aI2646
aI3046
asI2496
(lp2500
I1107
asI2497
(lp2501
I1107
aI1004
aI3288
aI860
aI3296
asI2498
(lp2502
I1043
aI822
aI3274
asI2499
(lp2503
I2067
aI370
asI2500
(lp2504
I2146
asI2501
(lp2505
I960
aI747
aI441
asI2502
(lp2506
I1511
asI2503
(lp2507
I1069
asI2504
(lp2508
I1069
asI2505
(lp2509
I2136
aI650
asI2506
(lp2510
I1655
aI2443
aI1238
aI1580
aI1275
aI2324
aI2507
aI677
aI2361
aI2362
asI2507
(lp2511
I2506
aI136
aI157
aI1009
aI450
aI2196
aI186
aI2883
aI2520
aI2598
asI2508
(lp2512
I196
asI2509
(lp2513
I1864
aI2875
aI2174
aI2510
aI2511
asI2510
(lp2514
I98
aI2020
aI1078
aI1259
aI2509
asI2511
(lp2515
I98
aI2509
asI2512
(lp2516
I1363
aI884
asI2513
(lp2517
I1129
aI2514
asI2514
(lp2518
I2513
aI1032
aI3241
aI1018
aI1018
asI2515
(lp2519
I654
aI540
aI2911
asI2516
(lp2520
I2517
aI1889
aI1730
asI2517
(lp2521
I2516
aI2751
aI329
asI2518
(lp2522
I2044
asI2519
(lp2523
I136
aI450
aI2718
aI2719
aI744
aI396
aI395
aI2196
aI2217
aI930
aI882
aI2720
asI2520
(lp2524
I136
aI2507
aI1429
aI847
asI2521
(lp2525
I15
asI2522
(lp2526
I2523
aI1112
asI2523
(lp2527
I2522
aI2523
aI2523
asI2524
(lp2528
I473
aI2202
aI3249
asI2525
(lp2529
I2525
aI2525
aI51
asI2526
(lp2530
I1798
asI2527
(lp2531
I1853
aI1758
aI1202
aI1064
aI347
aI2633
asI2528
(lp2532
I50
aI1349
aI2304
asI2529
(lp2533
I50
aI971
aI1263
asI2530
(lp2534
I2530
aI2530
aI1861
aI76
asI2531
(lp2535
I1039
aI584
aI1170
asI2532
(lp2536
I2207
aI1082
asI2533
(lp2537
I415
asI2534
(lp2538
I1944
aI2837
aI2380
asI2535
(lp2539
I1944
asI2536
(lp2540
I588
aI668
asI2537
(lp2541
I588
aI1255
asI2538
(lp2542
I2334
aI2642
asI2539
(lp2543
I463
aI1933
asI2540
(lp2544
I463
asI2541
(lp2545
I2541
aI2541
aI2288
aI3152
aI2367
asI2542
(lp2546
I1724
asI2543
(lp2547
I1858
aI958
aI1675
aI1063
asI2544
(lp2548
I1137
asI2545
(lp2549
I889
aI2799
asI2546
(lp2550
I152
asI2547
(lp2551
I920
aI2163
aI2316
asI2548
(lp2552
I2549
aI2140
asI2549
(lp2553
I2548
aI3152
aI2367
asI2550
(lp2554
I2551
aI1927
asI2551
(lp2555
I2550
aI843
aI2579
aI254
asI2552
(lp2556
I1119
aI1577
asI2553
(lp2557
I1381
asI2554
(lp2558
I2209
aI713
aI2555
aI471
aI713
aI1676
asI2555
(lp2559
I2554
aI2604
aI2209
asI2556
(lp2560
I586
asI2557
(lp2561
I70
aI991
asI2558
(lp2562
I2420
aI3193
aI1542
aI683
asI2559
(lp2563
I1560
aI2114
aI840
aI2477
aI1705
asI2560
(lp2564
I777
aI1447
asI2561
(lp2565
I543
aI2949
aI2165
asI2562
(lp2566
I808
aI1620
aI637
aI2066
aI808
asI2563
(lp2567
I2563
aI2563
asI2564
(lp2568
I237
aI627
aI941
aI807
aI1219
aI2097
aI2435
aI2665
aI968
asI2565
(lp2569
I414
aI2429
aI1492
aI1761
asI2566
(lp2570
I2195
asI2567
(lp2571
I906
asI2568
(lp2572
I906
asI2569
(lp2573
I2016
aI3250
asI2570
(lp2574
I57
aI2831
asI2571
(lp2575
I99
aI99
aI170
asI2572
(lp2576
I902
aI1201
aI97
asI2573
(lp2577
I2574
aI525
aI1143
aI2575
asI2574
(lp2578
I2573
aI648
asI2575
(lp2579
I2573
aI648
asI2576
(lp2580
I2576
aI2576
asI2577
(lp2581
I525
aI681
aI705
asI2578
(lp2582
I1999
aI1836
aI924
aI2212
aI1335
aI670
aI624
asI2579
(lp2583
I949
aI843
aI2551
aI690
aI253
asI2580
(lp2584
I2580
aI2580
aI1180
aI2581
aI561
aI2848
aI336
aI3025
aI1366
asI2581
(lp2585
I2580
aI1180
aI2848
aI336
aI3025
aI1366
asI2582
(lp2586
I1862
aI1862
asI2583
(lp2587
I2583
aI2583
aI2866
aI170
asI2584
(lp2588
I1583
aI1894
aI409
aI535
asI2585
(lp2589
I1190
aI755
aI2782
aI1422
aI1214
aI549
aI2828
aI303
asI2586
(lp2590
I744
aI1698
aI3138
asI2587
(lp2591
I2050
asI2588
(lp2592
I471
aI713
aI2314
aI1676
asI2589
(lp2593
I1021
aI3066
aI1719
aI998
asI2590
(lp2594
I935
asI2591
(lp2595
I821
asI2592
(lp2596
I847
aI2073
asI2593
(lp2597
I1056
asI2594
(lp2598
I1986
aI1333
aI394
asI2595
(lp2599
I1080
aI641
asI2596
(lp2600
I314
aI616
aI2204
aI2597
aI2598
aI2481
aI850
aI2257
aI968
aI622
aI2599
aI1708
aI1117
asI2597
(lp2601
I2596
aI16
aI2415
aI314
aI2416
aI616
aI1013
aI2625
aI691
aI2481
aI2417
aI622
aI340
aI2418
aI931
asI2598
(lp2602
I2596
aI136
aI2507
asI2599
(lp2603
I2596
aI3300
asI2600
(lp2604
I2600
aI2600
asI2601
(lp2605
I1302
aI1461
aI1271
asI2602
(lp2606
I1102
asI2603
(lp2607
I613
aI2669
aI1441
aI1667
asI2604
(lp2608
I2209
aI713
aI2555
aI1676
asI2605
(lp2609
I1028
aI611
aI620
asI2606
(lp2610
I2606
aI2606
aI1449
aI774
asI2607
(lp2611
I1311
asI2608
(lp2612
I2609
aI1027
asI2609
(lp2613
I2608
aI56
asI2610
(lp2614
I2611
aI531
aI2612
asI2611
(lp2615
I2610
asI2612
(lp2616
I2610
aI1335
aI1210
asI2613
(lp2617
I2614
aI2329
aI247
asI2614
(lp2618
I2613
aI2329
aI3292
asI2615
(lp2619
I216
aI2812
asI2616
(lp2620
I817
asI2617
(lp2621
I2618
asI2618
(lp2622
I2617
aI329
asI2619
(lp2623
I188
aI227
aI254
aI266
asI2620
(lp2624
I854
asI2621
(lp2625
I1759
aI1131
aI1625
aI1630
asI2622
(lp2626
I1759
aI755
aI2782
aI1422
aI10
aI2230
aI395
aI1591
aI1633
aI131
aI2830
aI268
aI1251
aI2162
aI468
asI2623
(lp2627
I2624
asI2624
(lp2628
I2623
aI483
asI2625
(lp2629
I147
aI428
aI2597
aI2650
aI40
asI2626
(lp2630
I147
aI428
aI1439
aI1647
aI1831
aI1054
aI773
aI3054
aI1112
asI2627
(lp2631
I1279
aI2628
asI2628
(lp2632
I1279
aI2627
aI1890
asI2629
(lp2633
I1320
asI2630
(lp2634
I629
aI1717
asI2631
(lp2635
I1678
aI2132
aI2899
aI3009
aI1620
aI421
asI2632
(lp2636
I43
aI2649
aI627
aI2239
aI492
aI2650
aI968
aI2651
aI1625
asI2633
(lp2637
I43
aI2527
aI1759
aI1665
aI2217
aI930
aI968
aI847
aI770
aI1064
aI347
asI2634
(lp2638
I222
aI1392
asI2635
(lp2639
I2000
aI3024
asI2636
(lp2640
I95
aI1620
asI2637
(lp2641
I2166
aI1567
aI622
aI1605
aI314
aI2417
aI3164
aI1708
aI1117
asI2638
(lp2642
I2404
aI1439
aI1740
aI2639
aI2640
aI2641
aI2264
aI1096
aI2405
aI351
aI180
aI1625
asI2639
(lp2643
I2638
aI661
aI351
aI180
asI2640
(lp2644
I2638
aI661
aI2641
asI2641
(lp2645
I2638
aI661
aI2640
asI2642
(lp2646
I1227
aI338
aI2538
asI2643
(lp2647
I1183
aI1180
aI2776
aI247
aI155
aI106
asI2644
(lp2648
I312
aI1457
aI76
asI2645
(lp2649
I416
aI1417
aI2217
aI768
asI2646
(lp2650
I1615
aI2495
aI1842
aI2278
aI2296
aI2450
aI771
aI540
aI319
aI649
aI2911
aI3017
aI516
aI3018
aI1472
aI819
asI2647
(lp2651
I648
aI517
asI2648
(lp2652
I1901
aI1097
aI1894
asI2649
(lp2653
I2632
aI1918
aI361
aI1422
aI1214
aI2444
aI2650
asI2650
(lp2654
I2632
aI755
aI1918
aI361
aI1422
aI1214
aI2649
aI2625
aI2444
asI2651
(lp2655
I2632
aI1422
aI2827
aI2828
aI2021
aI302
aI2281
asI2652
(lp2656
I2358
aI498
asI2653
(lp2657
I1539
aI3291
asI2654
(lp2658
I2434
aI1120
aI2654
aI2654
asI2655
(lp2659
I2277
aI42
aI444
aI1980
aI1872
aI263
aI1476
aI2422
aI886
aI1567
asI2656
(lp2660
I951
asI2657
(lp2661
I1052
aI2863
asI2658
(lp2662
I109
asI2659
(lp2663
I109
aI1781
asI2660
(lp2664
I917
aI2853
aI3255
asI2661
(lp2665
I2080
asI2662
(lp2666
I2080
asI2663
(lp2667
I755
aI1422
asI2664
(lp2668
I755
aI1422
aI2991
asI2665
(lp2669
I755
aI2784
aI2564
asI2666
(lp2670
I755
aI1904
asI2667
(lp2671
I755
aI941
aI807
aI1219
aI453
aI2786
aI2128
asI2668
(lp2672
I748
aI1422
aI2846
asI2669
(lp2673
I2603
aI1441
asI2670
(lp2674
I2671
aI2473
aI2672
aI1721
aI2673
aI1220
aI2672
asI2671
(lp2675
I2670
asI2672
(lp2676
I2670
aI2473
aI2670
aI1721
aI1967
aI1220
asI2673
(lp2677
I2670
aI615
aI2316
aI3284
aI83
asI2674
(lp2678
I286
asI2675
(lp2679
I2224
aI994
aI1399
asI2676
(lp2680
I2224
aI307
asI2677
(lp2681
I114
asI2678
(lp2682
I1883
asI2679
(lp2683
I176
aI795
aI2750
asI2680
(lp2684
I1131
aI1568
aI1308
aI1625
asI2681
(lp2685
I1131
aI1422
aI1625
aI627
aI2886
aI1012
asI2682
(lp2686
I2329
asI2683
(lp2687
I721
aI1135
asI2684
(lp2688
I1222
asI2685
(lp2689
I2686
asI2686
(lp2690
I2685
aI2065
aI3132
asI2687
(lp2691
I2442
aI177
asI2688
(lp2692
I2689
asI2689
(lp2693
I2688
asI2690
(lp2694
I2691
asI2691
(lp2695
I2690
aI533
aI1606
asI2692
(lp2696
I865
asI2693
(lp2697
I873
asI2694
(lp2698
I2695
aI1456
asI2695
(lp2699
I2694
asI2696
(lp2700
I179
aI2697
asI2697
(lp2701
I2696
asI2698
(lp2702
I2308
aI2698
aI2698
asI2699
(lp2703
I977
asI2700
(lp2704
I1601
asI2701
(lp2705
I967
aI290
asI2702
(lp2706
I1896
aI2703
asI2703
(lp2707
I1896
aI1152
aI218
aI1902
aI404
aI438
aI2170
aI1718
aI1534
aI208
aI2702
aI2976
aI2703
aI2703
aI2966
aI2705
aI2706
aI1035
aI997
asI2704
(lp2708
I1896
aI591
aI1463
aI2414
asI2705
(lp2709
I1896
aI208
aI2703
aI2966
aI404
aI438
aI1718
aI2966
aI2706
asI2706
(lp2710
I1896
aI208
aI2703
aI2966
aI404
aI438
aI2705
asI2707
(lp2711
I1896
asI2708
(lp2712
I1896
aI1569
aI908
asI2709
(lp2713
I1313
aI1023
asI2710
(lp2714
I2048
aI1894
asI2711
(lp2715
I1986
aI1333
aI394
aI1894
aI13
aI1167
asI2712
(lp2716
I1493
aI826
asI2713
(lp2717
I226
aI2005
aI3232
asI2714
(lp2718
I2715
aI1161
asI2715
(lp2719
I2714
aI1480
asI2716
(lp2720
I160
asI2717
(lp2721
I2151
asI2718
(lp2722
I413
aI2519
aI468
aI2720
asI2719
(lp2723
I413
aI2519
aI468
asI2720
(lp2724
I413
aI2519
aI2718
asI2721
(lp2725
I2028
aI1620
aI541
asI2722
(lp2726
I704
aI1254
aI2723
aI2092
asI2723
(lp2727
I2722
asI2724
(lp2728
I2724
aI2724
asI2725
(lp2729
I1277
asI2726
(lp2730
I2727
aI1170
asI2727
(lp2731
I2726
aI1111
aI1613
aI2058
aI711
asI2728
(lp2732
I1130
asI2729
(lp2733
I689
aI222
aI2730
aI1868
aI1435
aI26
asI2730
(lp2734
I2729
aI2898
aI1435
aI567
asI2731
(lp2735
I1847
aI2005
aI3232
asI2732
(lp2736
I1543
aI2733
aI508
aI2067
aI254
asI2733
(lp2737
I2732
aI1652
aI2492
aI2067
aI254
asI2734
(lp2738
I819
aI1002
aI1455
aI142
asI2735
(lp2739
I161
asI2736
(lp2740
I2070
aI451
aI3034
aI953
aI1440
asI2737
(lp2741
I2738
asI2738
(lp2742
I2737
aI1409
aI1448
asI2739
(lp2743
I2740
aI856
aI2741
aI401
aI2314
aI2314
asI2740
(lp2744
I2739
aI2189
asI2741
(lp2745
I2739
asI2742
(lp2746
I2193
asI2743
(lp2747
I2744
asI2744
(lp2748
I2743
asI2745
(lp2749
I1768
aI541
aI703
asI2746
(lp2750
I2012
aI1845
asI2747
(lp2751
I726
aI2748
asI2748
(lp2752
I2747
asI2749
(lp2753
I1119
aI260
asI2750
(lp2754
I2679
aI176
asI2751
(lp2755
I2517
aI1889
asI2752
(lp2756
I1052
aI485
asI2753
(lp2757
I639
asI2754
(lp2758
I1159
asI2755
(lp2759
I1159
asI2756
(lp2760
I1391
asI2757
(lp2761
I1106
asI2758
(lp2762
I1339
asI2759
(lp2763
I1956
asI2760
(lp2764
I349
asI2761
(lp2765
I2762
aI2763
asI2762
(lp2766
I2761
aI2999
aI1006
asI2763
(lp2767
I2761
aI300
asI2764
(lp2768
I2765
asI2765
(lp2769
I2764
aI272
asI2766
(lp2770
I1568
asI2767
(lp2771
I1568
aI1769
aI2485
aI1138
aI378
asI2768
(lp2772
I886
asI2769
(lp2773
I886
asI2770
(lp2774
I813
aI1585
asI2771
(lp2775
I813
aI1585
aI670
asI2772
(lp2776
I2773
aI3272
asI2773
(lp2777
I2772
aI2928
aI214
aI3272
asI2774
(lp2778
I1301
aI2968
aI1731
aI993
aI2097
aI968
aI2925
aI2829
asI2775
(lp2779
I1301
aI993
aI2925
aI2829
aI1943
asI2776
(lp2780
I2643
aI1246
aI155
aI2189
aI106
asI2777
(lp2781
I1332
asI2778
(lp2782
I973
asI2779
(lp2783
I1585
aI2780
aI1211
aI1384
asI2780
(lp2784
I1211
aI1075
aI2779
aI1211
asI2781
(lp2785
I2027
asI2782
(lp2786
I1034
aI1238
aI2585
aI2115
aI941
aI307
aI807
aI1219
aI1290
aI1644
aI1480
aI586
aI549
aI137
aI2475
aI220
aI453
aI887
aI2230
aI2783
aI2784
aI246
aI2622
aI968
aI1343
aI835
aI229
aI27
aI937
aI2023
aI2785
aI895
aI2786
aI1214
asI2783
(lp2787
I2782
aI1422
aI1015
aI2045
asI2784
(lp2788
I2782
aI1422
aI1214
aI453
aI2230
aI2665
asI2785
(lp2789
I2782
aI1422
aI229
aI1012
asI2786
(lp2790
I2782
aI1214
aI453
aI2667
asI2787
(lp2791
I2788
aI524
asI2788
(lp2792
I2787
aI2938
asI2789
(lp2793
I2149
aI552
aI339
asI2790
(lp2794
I1401
aI1286
aI2366
aI2367
aI374
aI1726
aI2067
aI2368
asI2791
(lp2795
I695
asI2792
(lp2796
I695
asI2793
(lp2797
I94
aI1192
aI94
asI2794
(lp2798
I2795
aI1173
asI2795
(lp2799
I2794
aI1730
asI2796
(lp2800
I1173
asI2797
(lp2801
I1918
aI875
aI1257
asI2798
(lp2802
I1899
asI2799
(lp2803
I889
aI2545
aI603
aI1973
asI2800
(lp2804
I1979
asI2801
(lp2805
I2802
aI2802
asI2802
(lp2806
I2801
aI2801
asI2803
(lp2807
I311
aI170
asI2804
(lp2808
I1806
aI2805
aI165
asI2805
(lp2809
I2804
aI2908
asI2806
(lp2810
I2807
asI2807
(lp2811
I2806
asI2808
(lp2812
I387
asI2809
(lp2813
I514
aI514
asI2810
(lp2814
I514
asI2811
(lp2815
I1447
aI1837
asI2812
(lp2816
I2615
aI441
aI1354
asI2813
(lp2817
I1158
asI2814
(lp2818
I1410
aI2815
asI2815
(lp2819
I2814
aI1410
aI228
aI411
aI300
asI2816
(lp2820
I1324
aI1324
aI1004
asI2817
(lp2821
I1324
asI2818
(lp2822
I2008
asI2819
(lp2823
I1791
aI1033
aI1992
aI1170
asI2820
(lp2824
I1422
aI2925
aI3324
aI1112
asI2821
(lp2825
I1422
aI2125
asI2822
(lp2826
I1422
aI1071
aI2128
asI2823
(lp2827
I1422
aI1943
asI2824
(lp2828
I1422
aI1214
aI3308
asI2825
(lp2829
I1422
aI1262
asI2826
(lp2830
I1422
aI59
aI1214
asI2827
(lp2831
I1422
aI510
aI686
aI1976
aI675
aI2651
asI2828
(lp2832
I1422
aI2585
aI454
aI2291
aI2842
aI3000
aI51
aI1190
aI835
aI2181
aI2651
asI2829
(lp2833
I1422
aI2234
aI2968
aI962
aI528
aI1071
aI2475
aI993
aI2967
aI2097
aI2774
aI2775
aI965
aI2398
aI2257
aI968
aI1157
aI1343
aI2282
aI433
asI2830
(lp2834
I1422
aI2859
aI2622
aI1205
asI2831
(lp2835
I2570
asI2832
(lp2836
I1465
aI2833
asI2833
(lp2837
I2832
asI2834
(lp2838
I507
asI2835
(lp2839
I2836
aI783
aI212
aI3076
aI3274
asI2836
(lp2840
I2835
aI212
aI1970
asI2837
(lp2841
I783
aI2534
asI2838
(lp2842
I29
asI2839
(lp2843
I887
asI2840
(lp2844
I587
aI541
aI582
asI2841
(lp2845
I2127
asI2842
(lp2846
I200
aI2843
aI2828
asI2843
(lp2847
I2842
aI200
asI2844
(lp2848
I670
aI504
aI430
asI2845
(lp2849
I924
aI777
aI624
asI2846
(lp2850
I2668
asI2847
(lp2851
I1800
asI2848
(lp2852
I2580
aI2581
aI1078
aI1600
aI561
aI1180
aI876
aI1953
aI247
asI2849
(lp2853
I2850
asI2850
(lp2854
I2849
asI2851
(lp2855
I2852
asI2852
(lp2856
I2851
asI2853
(lp2857
I2176
aI1036
aI1226
aI296
aI2660
asI2854
(lp2858
I2141
aI292
asI2855
(lp2859
I825
aI1340
aI101
asI2856
(lp2860
I1626
asI2857
(lp2861
I222
aI1392
aI3212
asI2858
(lp2862
I490
asI2859
(lp2863
I1230
aI887
aI2830
asI2860
(lp2864
I1214
aI2230
asI2861
(lp2865
I2174
aI1346
aI1395
aI1091
aI2399
aI1634
aI2455
aI402
aI1471
aI241
aI1414
aI2494
asI2862
(lp2866
I616
asI2863
(lp2867
I929
aI2657
aI2864
aI851
asI2864
(lp2868
I2863
asI2865
(lp2869
I1806
asI2866
(lp2870
I2583
aI1395
aI609
aI1634
aI2455
aI1355
aI874
aI2984
asI2867
(lp2871
I217
aI1770
aI422
aI1603
aI2237
asI2868
(lp2872
I2206
aI2473
aI2869
aI1725
aI607
aI2244
aI1220
aI590
aI1657
aI2870
asI2869
(lp2873
I2868
asI2870
(lp2874
I2868
asI2871
(lp2875
I1104
asI2872
(lp2876
I2873
asI2873
(lp2877
I2872
asI2874
(lp2878
I864
aI1346
aI864
aI2874
aI2874
aI1091
aI2371
asI2875
(lp2879
I2509
aI675
asI2876
(lp2880
I2876
aI2876
asI2877
(lp2881
I1040
aI1208
asI2878
(lp2882
I2342
asI2879
(lp2883
I1055
asI2880
(lp2884
I1996
aI1580
aI2311
aI2361
asI2881
(lp2885
I2881
aI2881
asI2882
(lp2886
I2435
aI968
asI2883
(lp2887
I2507
aI186
asI2884
(lp2888
I1125
aI1125
aI1890
asI2885
(lp2889
I1815
asI2886
(lp2890
I1625
aI2681
aI1965
asI2887
(lp2891
I396
asI2888
(lp2892
I1650
asI2889
(lp2893
I608
aI2890
asI2890
(lp2894
I2889
asI2891
(lp2895
I1115
aI445
aI486
asI2892
(lp2896
I2117
asI2893
(lp2897
I2385
aI85
asI2894
(lp2898
I2159
aI3144
asI2895
(lp2899
I2159
aI1544
asI2896
(lp2900
I2897
asI2897
(lp2901
I2896
aI1259
asI2898
(lp2902
I2730
aI1435
aI567
asI2899
(lp2903
I2900
aI927
aI2275
aI2631
aI2901
aI1946
aI2132
aI2899
aI2899
aI1068
aI70
aI2902
aI2903
aI1094
aI634
aI550
aI203
aI1135
asI2900
(lp2904
I2899
aI2052
aI194
aI1353
asI2901
(lp2905
I2899
asI2902
(lp2906
I2899
asI2903
(lp2907
I2899
asI2904
(lp2908
I2905
asI2905
(lp2909
I2904
aI3175
asI2906
(lp2910
I2109
aI946
asI2907
(lp2911
I1378
aI2038
aI2289
asI2908
(lp2912
I2805
asI2909
(lp2913
I1985
aI167
aI1970
aI998
asI2910
(lp2914
I540
aI610
asI2911
(lp2915
I540
aI2646
aI3046
aI610
aI2515
aI442
aI2134
aI1103
aI649
aI3317
aI923
aI3017
asI2912
(lp2916
I1484
aI2113
aI2063
asI2913
(lp2917
I2292
asI2914
(lp2918
I2915
asI2915
(lp2919
I2914
asI2916
(lp2920
I2917
asI2917
(lp2921
I2916
asI2918
(lp2922
I1461
aI1710
asI2919
(lp2923
I1587
aI2478
aI2404
aI158
aI1575
aI1
aI1358
aI1097
asI2920
(lp2924
I1004
aI582
aI860
aI3296
asI2921
(lp2925
I332
aI745
aI582
aI2189
asI2922
(lp2926
I635
aI437
asI2923
(lp2927
I1215
aI754
asI2924
(lp2928
I2401
asI2925
(lp2929
I1427
aI1567
aI2820
aI1034
aI912
aI2475
aI993
aI2967
aI2097
aI2774
aI2775
aI153
aI2398
aI2257
aI622
aI1605
aI1910
aI1010
aI373
aI1708
aI1117
asI2926
(lp2930
I2927
aI1232
aI1617
asI2927
(lp2931
I2926
aI706
aI1533
aI1112
aI1617
asI2928
(lp2932
I214
aI702
aI2773
asI2929
(lp2933
I305
asI2930
(lp2934
I308
asI2931
(lp2935
I316
aI2952
aI637
asI2932
(lp2936
I316
asI2933
(lp2937
I2933
aI2933
aI1
aI1097
asI2934
(lp2938
I2935
asI2935
(lp2939
I2934
asI2936
(lp2940
I2937
aI1878
aI310
asI2937
(lp2941
I2936
aI310
asI2938
(lp2942
I2788
aI524
asI2939
(lp2943
I93
aI690
asI2940
(lp2944
I1287
aI656
asI2941
(lp2945
I175
asI2942
(lp2946
I240
aI2264
asI2943
(lp2947
I2072
aI2368
asI2944
(lp2948
I1244
asI2945
(lp2949
I782
aI1870
aI1595
aI1926
asI2946
(lp2950
I2946
aI2946
aI183
asI2947
(lp2951
I1367
aI2960
asI2948
(lp2952
I1709
aI690
aI331
asI2949
(lp2953
I2090
aI2561
aI3011
asI2950
(lp2954
I2951
aI2292
aI2952
aI582
asI2951
(lp2955
I2950
asI2952
(lp2956
I2950
aI2931
asI2953
(lp2957
I1088
asI2954
(lp2958
I1471
aI2494
asI2955
(lp2959
I2956
aI1185
aI381
aI1457
aI2957
aI2445
aI1457
aI76
asI2956
(lp2960
I2955
aI1457
asI2957
(lp2961
I2955
aI2040
aI2082
aI2445
asI2958
(lp2962
I1175
aI2096
asI2959
(lp2963
I2401
aI3025
asI2960
(lp2964
I1182
aI758
aI2947
asI2961
(lp2965
I685
asI2962
(lp2966
I320
asI2963
(lp2967
I812
asI2964
(lp2968
I1965
aI768
aI1473
aI1956
asI2965
(lp2969
I694
aI2286
asI2966
(lp2970
I208
aI2703
aI404
aI438
aI2705
aI2706
aI2705
asI2967
(lp2971
I2968
aI2115
aI968
aI2925
aI2829
asI2968
(lp2972
I2967
aI2774
aI1153
aI2829
asI2969
(lp2973
I903
asI2970
(lp2974
I257
aI1722
asI2971
(lp2975
I2142
asI2972
(lp2976
I1458
asI2973
(lp2977
I465
aI3009
aI582
asI2974
(lp2978
I497
aI2094
aI1779
aI2975
aI1936
asI2975
(lp2979
I2974
aI497
aI2094
asI2976
(lp2980
I81
aI1902
aI558
aI2703
aI717
asI2977
(lp2981
I729
aI1620
aI2025
aI637
asI2978
(lp2982
I259
aI1262
asI2979
(lp2983
I230
aI1856
asI2980
(lp2984
I2981
aI681
asI2981
(lp2985
I2980
asI2982
(lp2986
I952
asI2983
(lp2987
I432
asI2984
(lp2988
I313
aI1395
aI2866
aI1355
aI1264
aI2994
asI2985
(lp2989
I730
aI2986
asI2986
(lp2990
I730
aI2985
asI2987
(lp2991
I730
asI2988
(lp2992
I1951
asI2989
(lp2993
I2989
aI2989
aI389
aI1984
aI2990
asI2990
(lp2994
I2989
asI2991
(lp2995
I2047
aI2664
aI1122
asI2992
(lp2996
I60
asI2993
(lp2997
I234
aI3215
aI2154
asI2994
(lp2998
I49
aI2984
aI491
asI2995
(lp2999
I391
asI2996
(lp3000
I2997
asI2997
(lp3001
I2996
asI2998
(lp3002
I1941
asI2999
(lp3003
I1006
aI2762
asI3000
(lp3004
I2828
asI3001
(lp3005
I1507
asI3002
(lp3006
I336
asI3003
(lp3007
I3004
aI3005
asI3004
(lp3008
I3003
asI3005
(lp3009
I3003
asI3006
(lp3010
I354
aI1822
asI3007
(lp3011
I690
aI3249
asI3008
(lp3012
I1933
asI3009
(lp3013
I2120
aI2631
aI70
aI2973
aI550
aI203
aI32
asI3010
(lp3014
I1162
aI550
asI3011
(lp3015
I1808
aI2949
aI2425
asI3012
(lp3016
I228
asI3013
(lp3017
I965
asI3014
(lp3018
I965
aI1112
aI1617
asI3015
(lp3019
I1316
asI3016
(lp3020
I945
asI3017
(lp3021
I2646
aI3046
aI582
aI2189
aI2911
aI455
aI921
aI83
asI3018
(lp3022
I2646
aI83
aI923
asI3019
(lp3023
I803
aI3159
asI3020
(lp3024
I1981
asI3021
(lp3025
I1305
aI1067
aI1189
asI3022
(lp3026
I1610
asI3023
(lp3027
I568
asI3024
(lp3028
I2635
asI3025
(lp3029
I2580
aI2581
aI1600
aI561
aI1180
aI876
aI2959
asI3026
(lp3030
I1620
aI1545
aI921
aI790
asI3027
(lp3031
I2426
aI1989
asI3028
(lp3032
I2427
aI746
asI3029
(lp3033
I359
aI80
asI3030
(lp3034
I1757
aI460
aI3263
aI835
asI3031
(lp3035
I1962
asI3032
(lp3036
I1524
asI3033
(lp3037
I1126
asI3034
(lp3038
I2736
aI1440
asI3035
(lp3039
I2031
aI1858
aI958
asI3036
(lp3040
I741
aI3203
aI1066
asI3037
(lp3041
I1810
aI901
aI3038
aI1624
aI1428
asI3038
(lp3042
I3037
aI1382
aI1624
asI3039
(lp3043
I638
aI610
asI3040
(lp3044
I2348
asI3041
(lp3045
I2348
asI3042
(lp3046
I1115
asI3043
(lp3047
I1389
asI3044
(lp3048
I2010
aI1554
asI3045
(lp3049
I1042
aI3187
aI2342
aI1823
asI3046
(lp3050
I2495
aI294
aI478
aI2278
aI1891
aI540
aI1256
aI1932
aI476
aI649
aI1865
aI2911
aI3017
aI83
aI1472
aI819
asI3047
(lp3051
I541
aI1303
aI440
asI3048
(lp3052
I541
aI564
asI3049
(lp3053
I541
aI1572
aI3050
asI3050
(lp3054
I541
aI3049
asI3051
(lp3055
I194
aI1094
aI3207
asI3052
(lp3056
I194
aI1384
asI3053
(lp3057
I1143
asI3054
(lp3058
I2626
asI3055
(lp3059
I474
asI3056
(lp3060
I1509
aI474
asI3057
(lp3061
I3058
aI3059
asI3058
(lp3062
I3057
aI3059
asI3059
(lp3063
I3058
aI3057
asI3060
(lp3064
I911
asI3061
(lp3065
I295
asI3062
(lp3066
I1563
asI3063
(lp3067
I831
aI831
asI3064
(lp3068
I1524
aI1433
asI3065
(lp3069
I1433
asI3066
(lp3070
I1021
aI2589
aI3067
asI3067
(lp3071
I3066
asI3068
(lp3072
I1868
aI1868
aI1218
asI3069
(lp3073
I1083
asI3070
(lp3074
I161
asI3071
(lp3075
I2022
aI1981
aI371
aI1369
aI1746
aI2339
asI3072
(lp3076
I918
aI3080
asI3073
(lp3077
I962
aI213
asI3074
(lp3078
I2435
asI3075
(lp3079
I959
aI1949
asI3076
(lp3080
I2835
aI212
aI205
aI783
asI3077
(lp3081
I2075
asI3078
(lp3082
I1153
asI3079
(lp3083
I1153
asI3080
(lp3084
I20
aI1583
aI3072
aI3081
aI918
aI2227
asI3081
(lp3085
I3080
asI3082
(lp3086
I3082
aI3082
asI3083
(lp3087
I321
asI3084
(lp3088
I156
asI3085
(lp3089
I326
asI3086
(lp3090
I968
asI3087
(lp3091
I204
aI101
asI3088
(lp3092
I2014
asI3089
(lp3093
I2400
asI3090
(lp3094
I1695
aI2037
aI3091
asI3091
(lp3095
I3090
asI3092
(lp3096
I1664
asI3093
(lp3097
I2254
aI219
aI303
asI3094
(lp3098
I3095
aI1314
asI3095
(lp3099
I3094
asI3096
(lp3100
I589
asI3097
(lp3101
I1955
asI3098
(lp3102
I1229
asI3099
(lp3103
I923
aI649
aI582
asI3100
(lp3104
I1541
asI3101
(lp3105
I667
asI3102
(lp3106
I711
aI3267
asI3103
(lp3107
I711
aI3267
asI3104
(lp3108
I1604
asI3105
(lp3109
I479
asI3106
(lp3110
I3107
aI410
asI3107
(lp3111
I3106
aI190
aI722
aI2180
aI1822
asI3108
(lp3112
I3109
aI3110
aI954
aI1191
asI3109
(lp3113
I3108
asI3110
(lp3114
I3108
asI3111
(lp3115
I1900
asI3112
(lp3116
I1673
asI3113
(lp3117
I2135
asI3114
(lp3118
I1696
aI1760
asI3115
(lp3119
I3116
asI3116
(lp3120
I3115
aI324
aI996
asI3117
(lp3121
I1252
aI3118
aI1571
asI3118
(lp3122
I1252
aI3117
aI1571
asI3119
(lp3123
I1252
aI1571
asI3120
(lp3124
I2464
aI1000
asI3121
(lp3125
I145
asI3122
(lp3126
I3122
aI3122
asI3123
(lp3127
I3123
aI3123
asI3124
(lp3128
I245
asI3125
(lp3129
I1851
aI1907
aI1310
asI3126
(lp3130
I3127
asI3127
(lp3131
I3126
asI3128
(lp3132
I603
aI1471
aI2208
aI439
aI2494
asI3129
(lp3133
I1349
aI1910
asI3130
(lp3134
I47
asI3131
(lp3135
I47
aI2167
asI3132
(lp3136
I2686
aI3193
asI3133
(lp3137
I1685
aI672
aI118
aI119
aI3134
aI1156
asI3134
(lp3138
I3133
aI205
aI132
asI3135
(lp3139
I1499
aI3136
asI3136
(lp3140
I3135
asI3137
(lp3141
I121
asI3138
(lp3142
I1412
aI2174
aI466
aI2586
asI3139
(lp3143
I1992
aI3244
aI1085
asI3140
(lp3144
I666
asI3141
(lp3145
I1127
asI3142
(lp3146
I2460
asI3143
(lp3147
I2004
asI3144
(lp3148
I66
aI3145
aI955
aI2894
asI3145
(lp3149
I3144
asI3146
(lp3150
I519
aI3147
aI3148
asI3147
(lp3151
I3146
aI1924
asI3148
(lp3152
I3146
aI582
asI3149
(lp3153
I2185
asI3150
(lp3154
I2185
aI1880
asI3151
(lp3155
I1341
asI3152
(lp3156
I2541
aI1983
aI2367
aI2549
asI3153
(lp3157
I1426
aI569
aI2210
aI624
asI3154
(lp3158
I951
asI3155
(lp3159
I1906
asI3156
(lp3160
I2453
aI88
aI2306
aI708
aI356
aI482
asI3157
(lp3161
I1026
asI3158
(lp3162
I963
asI3159
(lp3163
I3019
asI3160
(lp3164
I2062
asI3161
(lp3165
I101
asI3162
(lp3166
I1328
asI3163
(lp3167
I2365
aI424
asI3164
(lp3168
I2363
aI2363
aI2637
asI3165
(lp3169
I3166
asI3166
(lp3170
I3165
asI3167
(lp3171
I2309
asI3168
(lp3172
I2309
asI3169
(lp3173
I1523
aI3172
asI3170
(lp3174
I1523
asI3171
(lp3175
I1523
aI3172
asI3172
(lp3176
I1523
aI3169
aI3171
aI3173
asI3173
(lp3177
I3172
asI3174
(lp3178
I597
aI1143
asI3175
(lp3179
I2905
asI3176
(lp3180
I789
aI3177
asI3177
(lp3181
I3176
asI3178
(lp3182
I3179
asI3179
(lp3183
I3178
asI3180
(lp3184
I3181
aI1306
asI3181
(lp3185
I3180
aI1306
asI3182
(lp3186
I163
asI3183
(lp3187
I1766
aI210
asI3184
(lp3188
I190
aI330
aI325
asI3185
(lp3189
I403
aI1092
aI1662
asI3186
(lp3190
I303
asI3187
(lp3191
I3045
asI3188
(lp3192
I380
aI2155
asI3189
(lp3193
I245
asI3190
(lp3194
I3190
aI3190
asI3191
(lp3195
I596
asI3192
(lp3196
I601
asI3193
(lp3197
I1244
aI1728
aI1186
aI3194
aI846
aI1143
aI3132
aI372
aI168
aI107
aI3195
aI3196
aI746
aI2558
aI3197
aI33
aI3210
asI3194
(lp3198
I3193
aI1822
asI3195
(lp3199
I3193
asI3196
(lp3200
I3193
asI3197
(lp3201
I3193
aI33
asI3198
(lp3202
I1811
asI3199
(lp3203
I1529
asI3200
(lp3204
I655
aI687
aI3201
asI3201
(lp3205
I655
aI3200
asI3202
(lp3206
I2153
asI3203
(lp3207
I225
aI3036
aI245
aI1066
aI3204
asI3204
(lp3208
I1066
aI1827
aI225
aI245
aI3203
aI3204
aI3204
asI3205
(lp3209
I2029
aI1784
asI3206
(lp3210
I330
aI2065
asI3207
(lp3211
I3051
aI1135
asI3208
(lp3212
I1949
asI3209
(lp3213
I1655
asI3210
(lp3214
I3193
asI3211
(lp3215
I1113
asI3212
(lp3216
I1392
aI2857
asI3213
(lp3217
I506
asI3214
(lp3218
I640
asI3215
(lp3219
I1239
aI1052
aI2993
aI2189
aI2154
asI3216
(lp3220
I582
asI3217
(lp3221
I582
asI3218
(lp3222
I582
asI3219
(lp3223
I1237
aI3
asI3220
(lp3224
I1687
aI1822
asI3221
(lp3225
I567
aI689
aI308
aI2255
aI1310
asI3222
(lp3226
I2092
asI3223
(lp3227
I778
asI3224
(lp3228
I2041
aI2462
asI3225
(lp3229
I873
asI3226
(lp3230
I1519
asI3227
(lp3231
I2320
aI1557
aI3227
aI3227
asI3228
(lp3232
I1115
aI486
aI269
aI3236
asI3229
(lp3233
I1321
asI3230
(lp3234
I1321
aI239
aI3254
asI3231
(lp3235
I2252
asI3232
(lp3236
I2252
aI1907
aI2713
aI2731
asI3233
(lp3237
I935
asI3234
(lp3238
I269
asI3235
(lp3239
I269
asI3236
(lp3240
I269
aI3228
asI3237
(lp3241
I46
aI1047
asI3238
(lp3242
I277
asI3239
(lp3243
I866
asI3240
(lp3244
I2178
asI3241
(lp3245
I1018
aI738
aI1032
aI1129
aI2514
aI1018
aI1586
asI3242
(lp3246
I1581
aI268
asI3243
(lp3247
I2056
asI3244
(lp3248
I3139
aI1085
asI3245
(lp3249
I1972
asI3246
(lp3250
I1313
aI1462
asI3247
(lp3251
I1846
asI3248
(lp3252
I508
asI3249
(lp3253
I1808
aI3007
aI2492
aI2524
aI227
aI500
aI1809
aI266
aI254
asI3250
(lp3254
I2569
asI3251
(lp3255
I22
aI938
asI3252
(lp3256
I283
aI1045
aI3253
aI1596
asI3253
(lp3257
I3252
aI1045
aI1596
asI3254
(lp3258
I767
aI3230
asI3255
(lp3259
I2660
asI3256
(lp3260
I1670
aI3281
asI3257
(lp3261
I412
aI1778
asI3258
(lp3262
I636
asI3259
(lp3263
I1133
asI3260
(lp3264
I3260
aI3260
asI3261
(lp3265
I1293
aI673
asI3262
(lp3266
I788
asI3263
(lp3267
I460
aI3030
asI3264
(lp3268
I1475
asI3265
(lp3269
I212
aI205
aI1792
asI3266
(lp3270
I2196
asI3267
(lp3271
I3102
aI3103
asI3268
(lp3272
I1548
aI2271
asI3269
(lp3273
I2007
aI2237
asI3270
(lp3274
I2007
asI3271
(lp3275
I1822
asI3272
(lp3276
I2772
aI1589
aI2773
aI378
aI482
asI3273
(lp3277
I1266
aI1505
aI2411
aI1082
asI3274
(lp3278
I1551
aI110
aI2269
aI2498
aI95
aI472
aI2835
aI405
aI1768
aI541
aI1043
asI3275
(lp3279
I744
asI3276
(lp3280
I482
aI2104
aI2169
asI3277
(lp3281
I90
asI3278
(lp3282
I185
asI3279
(lp3283
I2026
asI3280
(lp3284
I1194
asI3281
(lp3285
I3256
asI3282
(lp3286
I1917
aI2339
asI3283
(lp3287
I837
asI3284
(lp3288
I2673
asI3285
(lp3289
I2
asI3286
(lp3290
I447
aI3287
aI1286
aI2366
aI1667
aI374
asI3287
(lp3291
I3286
asI3288
(lp3292
I2497
asI3289
(lp3293
I344
asI3290
(lp3294
I2214
asI3291
(lp3295
I2653
asI3292
(lp3296
I2614
asI3293
(lp3297
I352
asI3294
(lp3298
I1410
aI1813
aI2153
asI3295
(lp3299
I475
aI1679
aI2251
aI2262
asI3296
(lp3300
I342
aI2920
aI860
aI2497
asI3297
(lp3301
I1664
asI3298
(lp3302
I266
asI3299
(lp3303
I515
aI83
asI3300
(lp3304
I2599
asI3301
(lp3305
I1908
aI3302
asI3302
(lp3306
I3301
aI1908
asI3303
(lp3307
I1073
asI3304
(lp3308
I2050
aI1651
aI734
asI3305
(lp3309
I1733
asI3306
(lp3310
I1733
asI3307
(lp3311
I1969
asI3308
(lp3312
I1451
aI2824
aI19
asI3309
(lp3313
I41
asI3310
(lp3314
I116
asI3311
(lp3315
I717
asI3312
(lp3316
I2022
aI1981
asI3313
(lp3317
I1974
asI3314
(lp3318
I998
asI3315
(lp3319
I645
asI3316
(lp3320
I1181
asI3317
(lp3321
I2911
asI3318
(lp3322
I83
asI3319
(lp3323
I3320
asI3320
(lp3324
I3319
asI3321
(lp3325
I1750
asI3322
(lp3326
I3323
asI3323
(lp3327
I3322
asI3324
(lp3328
I2820
aI131
aI268
asI3325
(lp3329
I1643
asI3326
(lp3330
I33
as.