ccollections
defaultdict
p0
(c__builtin__
list
p1
tp2
Rp3
I0
(lp4
I633
aI1862
aI2582
asI1
(lp5
I2
aI652
aI654
asI2
(lp6
I1986
aI332
aI1666
aI1
aI1454
asI3
(lp7
I2544
asI4
(lp8
I2176
aI1016
aI2176
aI1761
aI1256
aI2175
asI5
(lp9
I1629
aI2546
aI1659
aI1659
asI6
(lp10
I1416
aI1602
aI1042
aI373
asI7
(lp11
I208
asI8
(lp12
I281
aI1996
aI269
asI9
(lp13
I2614
aI723
aI723
asI10
(lp14
I476
aI2545
asI11
(lp15
I1655
aI1839
asI12
(lp16
I2661
aI1001
aI1318
aI2662
asI13
(lp17
I1810
aI1701
asI14
(lp18
I2034
aI2075
aI158
aI2077
aI2668
asI15
(lp19
I2367
aI1093
aI1090
aI1271
aI1093
asI16
(lp20
I2444
aI1632
aI970
aI2642
asI17
(lp21
I24
aI2140
aI1316
aI1315
aI927
asI18
(lp22
I2082
aI139
aI1786
aI1560
aI2145
asI19
(lp23
I1939
asI20
(lp24
I1072
aI2374
aI2375
aI2269
aI2270
asI21
(lp25
I1043
aI2310
asI22
(lp26
I1703
aI1702
aI2238
aI39
aI1234
asI23
(lp27
I2159
asI24
(lp28
I1701
aI2139
aI1636
aI17
aI2141
aI598
aI201
asI25
(lp29
I1344
aI2011
aI1301
aI2317
asI26
(lp30
I2454
aI2455
aI123
aI99
aI122
asI27
(lp31
I1810
aI606
aI2360
aI2578
asI28
(lp32
I1687
asI29
(lp33
I963
aI2645
asI30
(lp34
I1358
aI1416
aI2162
aI697
aI2343
aI738
asI31
(lp35
I1594
asI32
(lp36
I1973
aI279
aI518
aI1850
asI33
(lp37
I2119
aI911
aI588
aI1051
aI2120
aI286
aI2040
aI2121
aI698
asI34
(lp38
I1358
asI35
(lp39
I1296
aI1913
aI895
asI36
(lp40
I1146
aI1640
aI1505
aI2106
aI1781
aI2094
aI1552
aI2107
asI37
(lp41
I2427
aI1190
aI60
asI38
(lp42
I429
aI1160
aI862
aI863
aI862
asI39
(lp43
I1634
aI1965
aI1349
aI1532
aI1522
aI22
aI2357
asI40
(lp44
I507
aI866
aI1364
asI41
(lp45
I1914
aI644
aI175
aI596
asI42
(lp46
I1372
aI87
asI43
(lp47
I963
aI2399
aI2400
aI152
aI1653
aI1530
asI44
(lp48
I1582
aI2624
aI2701
aI2624
asI45
(lp49
I1986
aI733
aI2303
aI1219
aI2667
aI2668
asI46
(lp50
I2366
aI1604
asI47
(lp51
I1579
aI163
asI48
(lp52
I598
aI1666
aI2471
aI2205
aI1031
aI2041
aI1662
aI714
aI2206
asI49
(lp53
I2034
aI1666
asI50
(lp54
I1441
asI51
(lp55
I710
aI2214
aI2215
aI2213
aI457
aI1392
asI52
(lp56
I1467
aI2172
aI2182
aI1139
aI1467
aI2053
asI53
(lp57
I1358
aI1103
aI1739
asI54
(lp58
I767
aI401
asI55
(lp59
I210
aI1983
aI787
aI2020
aI1156
aI210
aI771
aI60
aI815
aI2021
aI323
aI651
aI1079
asI56
(lp60
I1616
aI412
aI447
aI1849
asI57
(lp61
I2418
asI58
(lp62
I1715
asI59
(lp63
I1358
aI1725
aI1627
aI609
aI615
aI1287
aI2651
aI105
aI580
aI1067
asI60
(lp64
I55
aI1527
aI37
asI61
(lp65
I1416
aI1309
aI2162
aI2312
aI1080
asI62
(lp66
I485
asI63
(lp67
I1322
asI64
(lp68
I1737
aI1209
aI2616
asI65
(lp69
I1628
aI2418
aI2419
aI543
aI619
aI1293
aI1156
aI771
aI2418
aI2021
aI239
asI66
(lp70
I2631
asI67
(lp71
I540
aI282
aI2628
asI68
(lp72
I1358
aI1986
aI391
asI69
(lp73
I1013
aI1914
aI1926
aI1351
aI604
aI1926
aI1920
aI2189
asI70
(lp74
I441
aI2184
asI71
(lp75
I1986
aI206
aI2691
aI2691
asI72
(lp76
I1358
aI1103
asI73
(lp77
I1358
aI797
aI449
aI1136
aI558
aI1723
aI1189
aI876
aI1214
aI1745
aI1751
aI1035
aI1214
asI74
(lp78
I1416
aI586
aI1042
aI2155
aI544
aI2419
aI1118
aI1517
aI2052
asI75
(lp79
I2222
aI2223
aI2224
aI2225
aI84
aI583
asI76
(lp80
I88
aI2018
aI2178
asI77
(lp81
I659
aI1803
asI78
(lp82
I1418
aI1329
aI1219
asI79
(lp83
I2097
aI603
asI80
(lp84
I257
aI2049
aI1117
asI81
(lp85
I2180
aI347
aI527
aI423
aI423
asI82
(lp86
I1634
aI1138
asI83
(lp87
I1520
aI2581
asI84
(lp88
I75
aI2224
aI284
aI2223
aI2226
asI85
(lp89
I1065
aI2487
aI2488
asI86
(lp90
I1336
aI2034
aI429
aI2295
asI87
(lp91
I842
aI2164
aI42
asI88
(lp92
I2010
aI130
aI76
aI2011
aI1677
aI2012
aI2013
aI1713
aI1658
aI1394
aI1288
aI498
aI696
aI1882
aI851
aI743
aI2014
aI1732
aI162
aI841
aI1494
aI1908
aI1741
aI1174
aI1309
aI300
aI1527
aI1847
aI815
aI2015
aI2016
aI2017
aI1309
aI415
aI737
aI2394
aI2178
asI89
(lp93
I1087
aI884
aI1401
aI2463
aI1157
aI1094
aI258
aI1653
aI1530
aI1585
asI90
(lp94
I1358
aI817
aI155
aI156
asI91
(lp95
I2122
aI2001
aI330
aI2001
aI2380
aI2123
aI1046
asI92
(lp96
I898
aI1836
asI93
(lp97
I2151
aI550
aI1495
aI950
asI94
(lp98
I1966
aI586
aI733
aI1649
aI2490
aI586
aI195
aI2355
aI934
aI2263
aI2357
aI934
aI675
asI95
(lp99
I1535
aI1838
aI2200
aI2201
aI2197
aI2199
aI2181
aI2054
aI861
aI334
aI1303
aI734
aI736
aI2074
aI1628
aI1602
aI693
aI456
aI2183
aI2182
aI1580
asI96
(lp100
I2217
asI97
(lp101
I661
aI1353
asI98
(lp102
I1521
asI99
(lp103
I123
aI2454
aI2455
aI123
aI122
aI2604
aI26
asI100
(lp104
I1602
aI2056
asI101
(lp105
I1358
aI281
aI1589
asI102
(lp106
I1623
aI109
aI1878
aI1448
aI2256
aI1251
aI1871
aI1561
asI103
(lp107
I139
aI484
aI306
aI608
aI1790
aI1775
asI104
(lp108
I2210
aI864
aI401
aI1065
asI105
(lp109
I1721
aI59
aI2651
aI2476
asI106
(lp110
I2461
asI107
(lp111
I541
aI1113
aI971
aI1650
asI108
(lp112
I2157
aI1647
aI2209
asI109
(lp113
I1624
aI2045
aI236
aI306
aI124
aI1769
aI289
aI2092
aI459
aI318
aI2093
aI1772
aI1045
aI1785
aI1337
aI102
aI1998
aI1787
aI610
aI1789
aI1779
aI1346
aI153
aI519
aI133
aI1805
aI426
aI563
aI2094
aI176
aI2095
aI1661
asI110
(lp114
I1262
aI567
aI2279
aI1161
aI1599
asI111
(lp115
I1358
aI1169
aI2643
aI758
aI2492
aI1762
aI758
asI112
(lp116
I1623
aI487
aI306
aI2080
asI113
(lp117
I540
aI747
aI1884
asI114
(lp118
I2288
aI610
aI2506
asI115
(lp119
I973
asI116
(lp120
I1076
aI1501
asI117
(lp121
I259
aI2537
asI118
(lp122
I1616
aI388
aI2010
aI842
aI2030
aI446
aI255
aI1343
aI2165
aI554
aI581
aI1690
aI1507
aI2112
aI1029
aI2166
aI1538
aI454
aI1851
asI119
(lp123
I646
aI1959
aI379
aI1549
aI1901
aI1537
asI120
(lp124
I514
aI2405
aI1842
aI483
aI816
asI121
(lp125
I1910
aI980
aI802
aI1158
aI2251
aI589
aI2252
asI122
(lp126
I2454
aI2455
aI99
aI26
asI123
(lp127
I2455
aI99
aI2604
aI99
aI26
asI124
(lp128
I306
aI109
aI1367
aI1622
aI2478
asI125
(lp129
I458
aI2363
asI126
(lp130
I1623
aI2045
aI236
aI306
aI1551
aI2079
asI127
(lp131
I2604
asI128
(lp132
I233
aI392
aI370
aI2270
asI129
(lp133
I441
aI701
asI130
(lp134
I88
aI2017
aI1982
asI131
(lp135
I2169
aI834
asI132
(lp136
I904
aI1022
aI1959
aI379
aI479
asI133
(lp137
I1623
aI2045
aI1670
aI2082
aI1777
aI452
aI399
aI1784
aI109
asI134
(lp138
I406
asI135
(lp139
I137
aI2144
aI2095
asI136
(lp140
I831
asI137
(lp141
I2144
aI2329
aI2504
aI135
asI138
(lp142
I236
aI306
aI1776
asI139
(lp143
I1623
aI660
aI103
aI1780
aI910
aI2045
aI306
aI18
asI140
(lp144
I582
aI623
aI582
asI141
(lp145
I2034
aI1002
aI740
asI142
(lp146
I2049
aI1628
aI525
aI2181
aI456
asI143
(lp147
I1701
aI598
aI316
asI144
(lp148
I2192
aI1593
aI145
aI213
asI145
(lp149
I213
aI537
aI1593
aI144
aI1165
aI2622
asI146
(lp150
I1927
aI2059
aI897
aI1468
aI1907
asI147
(lp151
I1976
aI1519
asI148
(lp152
I714
aI2518
aI602
aI714
aI381
aI378
aI2518
asI149
(lp153
I1416
aI2025
aI1655
aI1080
asI150
(lp154
I310
aI1942
aI914
asI151
(lp155
I1986
aI2236
aI2238
aI2335
asI152
(lp156
I2238
aI2240
aI884
aI43
asI153
(lp157
I1623
aI2045
aI236
aI459
aI306
aI109
asI154
(lp158
I1358
aI2525
aI1444
aI1339
aI1238
aI1568
aI364
aI326
aI1752
aI1753
aI1754
aI819
asI155
(lp159
I1358
aI817
aI1736
aI90
aI1689
aI1763
aI156
asI156
(lp160
I1358
aI817
aI90
aI1689
aI155
aI1763
asI157
(lp161
I1701
aI598
aI1870
aI2493
asI158
(lp162
I1701
aI2034
aI14
aI180
asI159
(lp163
I2308
aI180
asI160
(lp164
I1986
aI745
aI277
aI743
aI2000
aI2009
aI553
asI161
(lp165
I2010
aI842
asI162
(lp166
I88
aI323
aI1667
aI1174
aI1268
asI163
(lp167
I47
asI164
(lp168
I210
aI211
asI165
(lp169
I598
aI1473
aI2706
aI2707
asI166
(lp170
I271
aI2617
asI167
(lp171
I2437
aI1056
aI168
aI2482
asI168
(lp172
I2437
aI2438
aI167
asI169
(lp173
I1994
aI2706
asI170
(lp174
I1358
aI1067
asI171
(lp175
I790
aI1548
aI775
asI172
(lp176
I756
aI1692
aI2187
aI240
aI512
asI173
(lp177
I1358
aI687
aI1033
aI1586
asI174
(lp178
I1358
aI1742
aI629
aI2334
asI175
(lp179
I1914
aI2388
aI955
aI596
aI41
aI2217
aI2135
asI176
(lp180
I109
aI973
aI231
asI177
(lp181
I2679
aI2682
aI1639
aI726
asI178
(lp182
I833
asI179
(lp183
I1986
aI231
aI197
asI180
(lp184
I159
aI2037
aI1807
aI1020
aI2076
aI791
aI2004
aI790
aI775
aI158
asI181
(lp185
I1013
aI1464
aI1359
aI1683
asI182
(lp186
I183
aI997
asI183
(lp187
I1837
aI997
aI182
aI997
asI184
(lp188
I520
asI185
(lp189
I2003
aI297
asI186
(lp190
I2702
aI1672
aI2580
aI1228
aI1319
aI1536
aI2580
aI1228
aI1319
asI187
(lp191
I1208
asI188
(lp192
I1169
aI1727
asI189
(lp193
I1072
aI1262
aI1509
aI1509
aI564
asI190
(lp194
I2135
aI491
asI191
(lp195
I608
aI382
aI1677
aI1998
aI2385
aI1791
asI192
(lp196
I2472
asI193
(lp197
I441
aI458
asI194
(lp198
I1050
aI1451
aI2646
aI1451
aI2564
aI473
asI195
(lp199
I2424
aI94
asI196
(lp200
I429
aI2122
aI442
asI197
(lp201
I231
aI2412
aI179
aI231
asI198
(lp202
I1255
asI199
(lp203
I1869
aI420
asI200
(lp204
I2676
aI1439
asI201
(lp205
I1701
aI1986
aI598
aI2430
aI570
aI297
aI24
asI202
(lp206
I1250
aI353
aI1173
aI1345
aI1345
asI203
(lp207
I857
aI854
aI1115
aI963
aI1869
aI854
asI204
(lp208
I415
asI205
(lp209
I1701
aI1869
asI206
(lp210
I71
aI2691
asI207
(lp211
I833
asI208
(lp212
I7
asI209
(lp213
I2681
asI210
(lp214
I164
aI1905
aI1614
aI1626
aI1906
aI1907
aI55
aI1079
aI1671
aI55
aI2309
asI211
(lp215
I164
aI356
aI1394
aI1908
aI1909
asI212
(lp216
I1290
asI213
(lp217
I2192
aI1593
aI145
aI144
asI214
(lp218
I2194
asI215
(lp219
I1701
aI1986
aI2045
asI216
(lp220
I1701
aI1542
asI217
(lp221
I2473
aI2474
aI243
asI218
(lp222
I733
aI482
aI2119
aI1382
aI1020
aI2076
aI792
aI1348
aI781
aI2594
aI2091
asI219
(lp223
I1413
aI1542
aI507
asI220
(lp224
I913
aI376
aI817
asI221
(lp225
I817
asI222
(lp226
I821
asI223
(lp227
I1761
aI1154
aI744
asI224
(lp228
I1810
aI2034
asI225
(lp229
I2255
asI226
(lp230
I1701
asI227
(lp231
I883
aI534
asI228
(lp232
I1358
aI1871
aI1721
aI322
aI848
asI229
(lp233
I1894
aI1053
aI1405
aI2118
aI1053
asI230
(lp234
I1810
aI549
aI577
aI1095
aI1217
asI231
(lp235
I1701
aI387
aI232
aI179
aI2217
aI197
aI551
aI232
aI1868
aI176
aI197
asI232
(lp236
I1701
aI1986
aI869
aI231
aI231
aI1864
asI233
(lp237
I128
asI234
(lp238
I610
aI2591
asI235
(lp239
I1701
asI236
(lp240
I1072
aI2045
aI138
aI1572
aI2046
aI2078
aI126
aI2079
aI153
aI306
aI109
aI306
asI237
(lp241
I2539
asI238
(lp242
I1828
asI239
(lp243
I2182
aI1376
aI1274
aI619
aI1069
aI1220
aI887
aI2418
aI65
aI1759
aI1909
aI910
aI2021
asI240
(lp244
I756
aI1472
aI512
aI1692
aI172
asI241
(lp245
I1441
asI242
(lp246
I1131
aI279
aI2280
aI838
asI243
(lp247
I217
aI473
aI2647
aI2648
aI2474
asI244
(lp248
I1358
aI1072
aI565
aI1610
asI245
(lp249
I782
aI1162
asI246
(lp250
I1358
aI1687
aI936
aI2515
asI247
(lp251
I2583
asI248
(lp252
I1964
aI1264
aI1531
asI249
(lp253
I1978
aI1884
aI621
asI250
(lp254
I2429
asI251
(lp255
I1413
aI1542
aI507
aI1300
aI1933
aI1413
aI253
aI812
asI252
(lp256
I1973
aI711
aI973
aI2485
asI253
(lp257
I1413
aI507
aI251
asI254
(lp258
I507
aI1211
asI255
(lp259
I118
aI1343
aI2112
aI1266
asI256
(lp260
I756
asI257
(lp261
I80
aI2180
aI1388
aI964
asI258
(lp262
I1240
aI963
aI89
aI2645
aI1094
aI1153
aI1401
asI259
(lp263
I117
aI2537
asI260
(lp264
I365
asI261
(lp265
I1701
aI873
aI1894
aI1479
asI262
(lp266
I1464
aI1351
asI263
(lp267
I1103
aI364
aI732
asI264
(lp268
I1902
aI1826
aI472
aI844
aI844
asI265
(lp269
I1441
asI266
(lp270
I578
aI2227
aI2229
aI809
asI267
(lp271
I670
aI2000
aI2373
aI2373
asI268
(lp272
I1740
aI2451
asI269
(lp273
I321
aI8
aI418
aI2543
aI2551
asI270
(lp274
I279
aI2280
aI1195
aI1215
aI838
asI271
(lp275
I166
aI2387
aI1970
aI638
aI2498
asI272
(lp276
I2012
asI273
(lp277
I374
aI846
asI274
(lp278
I749
aI748
asI275
(lp279
I1967
aI805
asI276
(lp280
I1463
aI1695
aI2133
asI277
(lp281
I973
aI160
aI553
aI1869
aI696
asI278
(lp282
I1185
asI279
(lp283
I2280
aI242
aI2344
aI1195
aI666
aI32
aI2423
aI2165
aI304
aI838
aI270
aI502
asI280
(lp284
I2155
aI1535
asI281
(lp285
I2247
aI2244
aI1347
aI8
aI1000
aI1382
aI746
aI101
asI282
(lp286
I747
aI67
aI747
asI283
(lp287
I2250
aI1559
asI284
(lp288
I2222
aI2223
aI2226
aI2224
aI2225
aI84
aI583
asI285
(lp289
I1999
aI502
asI286
(lp290
I33
aI442
aI698
asI287
(lp291
I2705
asI288
(lp292
I618
asI289
(lp293
I1358
aI109
aI1722
asI290
(lp294
I687
aI2359
aI1765
aI328
aI567
asI291
(lp295
I1692
asI292
(lp296
I2562
asI293
(lp297
I2038
asI294
(lp298
I306
aI2047
asI295
(lp299
I1177
aI1176
asI296
(lp300
I2685
aI732
asI297
(lp301
I1542
aI598
aI899
aI201
aI185
asI298
(lp302
I1325
aI1095
aI607
asI299
(lp303
I2383
aI2498
aI1484
aI2386
aI2387
asI300
(lp304
I88
aI415
aI634
asI301
(lp305
I1169
aI2492
asI302
(lp306
I306
aI1158
aI719
aI350
aI1253
asI303
(lp307
I2143
aI1670
aI719
asI304
(lp308
I1857
aI1172
aI279
aI2423
asI305
(lp309
I1416
aI1927
asI306
(lp310
I1072
aI2045
aI236
aI973
aI608
aI124
aI542
aI138
aI655
aI1572
aI1770
aI573
aI2084
aI112
aI1551
aI1797
aI1656
aI2085
aI958
aI1856
aI1584
aI1771
aI1651
aI2086
aI1009
aI1193
aI2087
aI1640
aI2046
aI1772
aI1483
aI139
aI302
aI1798
aI2078
aI1045
aI1490
aI1799
aI1158
aI126
aI2088
aI103
aI2080
aI329
aI1245
aI2089
aI1705
aI1775
aI1787
aI350
aI887
aI1251
aI294
aI1802
aI417
aI554
aI476
aI1779
aI1346
aI581
aI1781
aI452
aI1804
aI236
aI153
aI487
aI519
aI308
aI109
aI1805
aI1782
aI426
aI656
aI2090
aI2048
aI2091
aI1367
aI719
aI910
asI307
(lp311
I991
asI308
(lp312
I2045
aI1670
aI306
aI350
aI1253
asI309
(lp313
I2305
aI2268
aI383
asI310
(lp314
I1241
aI352
aI990
aI1947
aI1948
aI1815
aI892
aI1949
aI1581
aI1272
aI1944
aI1945
aI1946
aI150
aI1950
aI1331
aI875
aI1950
asI311
(lp315
I343
aI690
aI1132
aI1865
asI312
(lp316
I1740
aI1610
aI1722
asI313
(lp317
I2296
asI314
(lp318
I1623
aI2000
asI315
(lp319
I1921
aI408
aI2232
aI423
aI1602
asI316
(lp320
I598
aI766
aI1073
aI920
aI143
aI1821
aI2004
aI1297
aI845
aI1868
asI317
(lp321
I1624
aI1785
asI318
(lp322
I1701
aI2045
aI109
aI563
asI319
(lp323
I1205
asI320
(lp324
I1597
aI348
asI321
(lp325
I1450
aI269
aI1083
aI1450
asI322
(lp326
I228
asI323
(lp327
I2020
aI498
aI55
aI162
aI2022
asI324
(lp328
I2194
aI827
aI2156
asI325
(lp329
I787
aI1848
asI326
(lp330
I1358
aI154
aI1754
asI327
(lp331
I928
aI1996
aI1325
aI2063
aI2064
asI328
(lp332
I1250
aI951
aI290
asI329
(lp333
I306
aI2598
aI1798
asI330
(lp334
I1505
aI91
aI2123
asI331
(lp335
I1527
aI2480
asI332
(lp336
I2
aI2615
aI665
aI2003
aI2122
asI333
(lp337
I1358
aI1694
asI334
(lp338
I1013
aI95
aI693
asI335
(lp339
I1701
aI1986
asI336
(lp340
I1944
aI1950
asI337
(lp341
I1358
aI1776
aI1214
aI1499
aI1499
asI338
(lp342
I1413
aI1542
aI1934
asI339
(lp343
I813
asI340
(lp344
I584
aI2463
asI341
(lp345
I1358
aI2045
aI613
aI1546
aI1389
asI342
(lp346
I1072
aI1512
asI343
(lp347
I1701
aI311
asI344
(lp348
I661
aI441
aI854
aI2323
aI389
asI345
(lp349
I833
asI346
(lp350
I1358
aI999
asI347
(lp351
I525
aI81
aI408
aI423
asI348
(lp352
I320
aI2248
aI2250
aI1643
asI349
(lp353
I465
aI2427
aI419
asI350
(lp354
I1623
aI306
aI2084
aI2085
aI1640
aI302
aI2089
aI1775
aI1778
aI308
aI1782
aI656
aI2090
aI406
asI351
(lp355
I1810
asI352
(lp356
I1944
aI310
aI1294
asI353
(lp357
I202
aI2507
aI1173
aI1345
asI354
(lp358
I659
aI1803
aI2453
asI355
(lp359
I1668
asI356
(lp360
I211
aI2018
aI2116
aI1259
aI498
asI357
(lp361
I1358
aI1154
aI657
aI2652
asI358
(lp362
I2642
asI359
(lp363
I1483
aI389
aI1620
asI360
(lp364
I1824
aI1409
asI361
(lp365
I2681
asI362
(lp366
I1966
asI363
(lp367
I1003
asI364
(lp368
I1358
aI154
aI1632
aI970
aI2642
aI1606
aI1756
aI1306
aI732
aI263
aI819
asI365
(lp369
I2469
aI260
asI366
(lp370
I1986
aI745
aI1583
aI553
asI367
(lp371
I2083
aI2451
asI368
(lp372
I1545
aI428
aI996
aI1366
aI1194
aI2249
aI2393
asI369
(lp373
I385
aI2484
asI370
(lp374
I1408
aI1414
aI2269
aI1415
aI128
asI371
(lp375
I1415
aI1414
aI1553
aI1441
aI1354
aI720
aI2375
aI1415
asI372
(lp376
I1834
aI1710
aI2377
aI626
asI373
(lp377
I1042
aI1025
aI6
asI374
(lp378
I2146
aI2149
aI413
aI846
aI2147
aI1101
aI273
aI2146
asI375
(lp379
I963
aI2401
aI2434
aI2435
asI376
(lp380
I1583
aI220
aI672
asI377
(lp381
I733
aI1265
aI678
aI2291
asI378
(lp382
I148
aI602
asI379
(lp383
I1898
aI119
aI904
aI1022
aI1959
aI1959
aI132
asI380
(lp384
I930
aI2569
aI477
asI381
(lp385
I148
aI2518
aI2538
aI2518
asI382
(lp386
I2034
aI191
aI1203
asI383
(lp387
I733
aI309
aI1704
aI2268
asI384
(lp388
I1623
aI1624
asI385
(lp389
I369
aI2483
aI2484
asI386
(lp390
I2114
aI2115
aI2117
asI387
(lp391
I519
aI2191
aI231
asI388
(lp392
I118
aI2497
aI1899
asI389
(lp393
I1483
aI704
aI2450
aI1743
aI1077
aI344
aI905
aI359
asI390
(lp394
I1108
asI391
(lp395
I1986
aI2365
aI493
aI68
asI392
(lp396
I1415
aI1825
aI720
aI1619
aI2269
aI128
asI393
(lp397
I739
asI394
(lp398
I1063
aI577
aI2351
aI849
aI1064
asI395
(lp399
I2367
aI640
aI1147
asI396
(lp400
I1988
aI1217
asI397
(lp401
I2329
aI879
aI665
aI1096
asI398
(lp402
I730
aI2177
asI399
(lp403
I133
aI1089
aI544
aI1769
aI2107
asI400
(lp404
I1354
asI401
(lp405
I104
aI1065
aI54
aI1160
aI733
aI1096
asI402
(lp406
I1413
aI1542
aI507
aI776
aI1940
aI1932
aI1936
asI403
(lp407
I1742
aI464
aI2503
aI1037
aI2654
aI806
aI1383
asI404
(lp408
I1476
aI1170
asI405
(lp409
I1927
aI2059
aI1275
aI738
asI406
(lp410
I505
aI350
aI134
aI2505
asI407
(lp411
I1681
aI1682
aI695
aI409
asI408
(lp412
I525
aI734
aI347
aI315
aI1841
aI2056
asI409
(lp413
I1624
aI1681
aI2084
aI407
asI410
(lp414
I1179
aI676
asI411
(lp415
I1488
aI1096
aI1577
aI2609
asI412
(lp416
I1616
aI1849
aI56
asI413
(lp417
I374
asI414
(lp418
I711
asI415
(lp419
I1677
aI1843
aI593
aI966
aI737
aI851
aI818
aI2014
aI88
aI1908
aI2178
aI1174
aI1644
aI1309
aI300
aI1527
aI1847
aI204
aI1850
aI525
aI2182
aI966
asI416
(lp420
I1701
aI519
asI417
(lp421
I1072
aI2034
aI306
aI1871
aI2494
asI418
(lp422
I269
asI419
(lp423
I349
asI420
(lp424
I1869
aI199
asI421
(lp425
I2216
aI2213
asI422
(lp426
I545
asI423
(lp427
I525
aI347
aI315
aI527
aI81
aI81
asI424
(lp428
I436
aI1203
asI425
(lp429
I2466
asI426
(lp430
I306
aI109
aI1805
aI1782
aI1777
aI1789
aI487
aI1772
asI427
(lp431
I565
aI1528
asI428
(lp432
I2248
aI368
aI2671
aI1257
aI996
asI429
(lp433
I2043
aI196
aI1493
aI1807
aI2044
aI1618
aI1889
aI794
aI38
aI2001
aI2041
aI86
aI1669
aI523
aI705
aI863
asI430
(lp434
I2130
asI431
(lp435
I2694
aI2695
asI432
(lp436
I1597
aI1442
asI433
(lp437
I436
aI756
asI434
(lp438
I1524
aI1693
aI2408
aI2133
aI1117
asI435
(lp439
I733
aI1912
aI486
asI436
(lp440
I1977
aI1978
aI878
aI433
aI1979
aI424
aI1039
aI816
aI498
aI1332
aI885
aI1494
aI668
aI483
aI1980
aI1981
aI1982
aI1131
asI437
(lp441
I1985
aI1495
aI950
aI718
aI498
asI438
(lp442
I1983
aI787
aI1984
aI1985
aI718
aI1667
asI439
(lp443
I1169
aI1642
asI440
(lp444
I1296
aI2179
aI441
aI725
aI1913
aI895
asI441
(lp445
I440
aI1537
aI344
aI671
aI70
aI1455
aI2184
aI129
aI193
aI2094
aI454
asI442
(lp446
I627
aI196
aI2362
aI588
aI1051
aI2120
aI286
aI698
asI443
(lp447
I1966
aI1010
aI1531
aI1264
asI444
(lp448
I582
aI488
aI623
aI515
aI2289
aI2290
aI2464
aI2289
aI2290
aI828
asI445
(lp449
I1434
aI909
asI446
(lp450
I903
aI118
aI1507
asI447
(lp451
I1616
aI1849
aI56
aI2638
asI448
(lp452
I1824
aI1902
aI1826
aI472
asI449
(lp453
I1834
aI73
aI1280
aI2581
asI450
(lp454
I1569
aI2538
asI451
(lp455
I671
aI935
aI2285
asI452
(lp456
I1623
aI133
aI306
aI1258
asI453
(lp457
I2305
aI1806
aI2306
asI454
(lp458
I441
aI973
aI2188
aI2189
aI1441
aI1917
aI2190
aI581
aI2022
aI118
aI1661
asI455
(lp459
I2486
aI2147
aI1664
asI456
(lp460
I525
aI2054
aI95
aI667
aI2347
aI2199
aI142
aI2472
aI544
aI1580
asI457
(lp461
I51
aI2216
aI1201
aI2215
asI458
(lp462
I125
aI1122
aI1953
aI1555
aI1276
aI193
asI459
(lp463
I1623
aI153
aI109
aI1681
asI460
(lp464
I1986
aI1989
aI2532
asI461
(lp465
I2309
aI1203
asI462
(lp466
I1048
asI463
(lp467
I1964
aI1703
aI1702
aI1966
asI464
(lp468
I2444
aI2445
aI403
aI1758
asI465
(lp469
I1403
aI896
aI349
aI1869
aI2304
asI466
(lp470
I1358
aI2546
aI970
aI1738
aI1305
asI467
(lp471
I1701
aI1708
aI1172
asI468
(lp472
I647
aI1311
aI1313
asI469
(lp473
I2412
aI2304
aI620
asI470
(lp474
I857
aI854
aI1115
aI652
aI1097
asI471
(lp475
I1013
aI2394
aI2013
asI472
(lp476
I1825
aI559
aI448
aI264
aI844
aI1183
aI1182
aI2029
asI473
(lp477
I1575
aI194
aI243
aI2647
asI474
(lp478
I1181
asI475
(lp479
I2219
aI2219
asI476
(lp480
I1986
aI306
aI1140
aI10
aI1800
aI1140
asI477
(lp481
I380
aI2569
aI930
aI2569
asI478
(lp482
I514
aI2024
aI1978
asI479
(lp483
I132
aI1880
asI480
(lp484
I598
aI687
aI2359
aI1710
aI2359
aI2372
aI1426
asI481
(lp485
I1810
aI2291
aI823
aI1287
asI482
(lp486
I2230
aI1812
aI1814
aI1807
aI2307
aI2308
aI218
aI790
aI1810
asI483
(lp487
I436
aI2405
aI120
aI816
asI484
(lp488
I542
aI2081
aI2046
aI1699
aI103
aI1367
aI1775
asI485
(lp489
I1042
aI839
aI2219
aI62
asI486
(lp490
I2077
aI435
aI2667
aI2668
asI487
(lp491
I655
aI112
aI2026
aI1773
aI1798
aI2080
aI1705
aI859
aI306
aI1782
aI426
aI1772
asI488
(lp492
I444
aI2547
asI489
(lp493
I1358
aI2390
aI2391
asI490
(lp494
I1973
aI2105
aI1879
aI826
aI2099
aI1309
aI1463
aI1981
aI1131
asI491
(lp495
I190
asI492
(lp496
I1257
aI956
aI1533
aI688
aI2678
aI2673
aI2538
asI493
(lp497
I1759
aI1244
aI391
asI494
(lp498
I2614
asI495
(lp499
I2192
aI1328
aI1327
asI496
(lp500
I711
aI596
aI992
asI497
(lp501
I2419
asI498
(lp502
I1652
aI436
aI437
aI88
aI323
aI356
asI499
(lp503
I2457
aI2458
asI500
(lp504
I2241
asI501
(lp505
I1358
aI1765
asI502
(lp506
I279
aI1976
aI285
asI503
(lp507
I1692
aI576
aI2001
asI504
(lp508
I1973
aI2394
aI2396
asI505
(lp509
I573
aI1180
aI1304
aI1448
aI1258
aI843
aI1251
aI1779
aI1560
aI2083
aI406
asI506
(lp510
I1013
aI1914
aI1918
aI1352
asI507
(lp511
I219
aI1940
aI1931
aI1211
aI1363
aI1941
aI402
aI1933
aI1413
aI1176
aI1300
aI253
aI254
aI251
aI812
aI1936
aI40
aI2508
asI508
(lp512
I2325
asI509
(lp513
I1101
aI2146
aI2148
asI510
(lp514
I1013
aI1131
aI1171
asI511
(lp515
I1810
aI549
asI512
(lp516
I756
aI1472
aI240
aI1692
aI172
asI513
(lp517
I565
aI1528
aI657
asI514
(lp518
I1978
aI120
aI1882
aI1314
aI478
asI515
(lp519
I444
aI2464
aI623
aI2547
aI2465
aI1102
aI1102
asI516
(lp520
I2104
aI1882
asI517
(lp521
I2105
aI952
asI518
(lp522
I666
aI32
aI2423
aI1373
asI519
(lp523
I2045
aI387
aI1574
aI1670
aI416
aI836
aI1998
aI1986
aI1346
aI306
aI109
aI598
asI520
(lp524
I184
asI521
(lp525
I598
asI522
(lp526
I2097
asI523
(lp527
I429
aI949
aI2406
asI524
(lp528
I1358
aI979
aI2476
aI1169
aI552
asI525
(lp529
I415
aI1540
aI2180
aI2181
aI2054
aI408
aI2182
aI142
aI423
aI347
aI1628
aI456
aI2183
aI2057
aI2172
aI2182
asI526
(lp530
I565
aI1742
aI1216
aI1007
asI527
(lp531
I81
aI423
asI528
(lp532
I803
asI529
(lp533
I1419
aI1417
aI2260
aI2260
asI530
(lp534
I1013
aI2094
aI1505
asI531
(lp535
I606
aI2308
asI532
(lp536
I1701
aI1863
asI533
(lp537
I1742
aI2466
asI534
(lp538
I629
aI609
aI933
aI227
asI535
(lp539
I2641
aI2392
asI536
(lp540
I1894
aI567
asI537
(lp541
I2192
aI1698
aI1593
aI145
aI1165
asI538
(lp542
I1286
asI539
(lp543
I1616
aI711
aI2155
asI540
(lp544
I1441
aI113
aI67
aI2527
aI747
asI541
(lp545
I107
aI904
aI647
aI1896
aI1360
aI1022
asI542
(lp546
I1623
aI484
aI306
aI1245
asI543
(lp547
I984
aI65
asI544
(lp548
I2199
aI1769
aI2347
aI2052
aI1580
aI74
aI399
aI456
asI545
(lp549
I422
asI546
(lp550
I1608
aI2127
aI2127
asI547
(lp551
I1701
aI598
asI548
(lp552
I2138
aI809
aI843
aI1937
aI1523
asI549
(lp553
I1810
aI511
aI1497
aI230
aI1810
asI550
(lp554
I93
asI551
(lp555
I231
aI2388
asI552
(lp556
I1358
aI1169
aI524
aI2201
asI553
(lp557
I1995
aI366
aI1127
aI277
aI745
aI160
aI1583
aI2009
asI554
(lp558
I306
aI118
aI685
asI555
(lp559
I1463
asI556
(lp560
I1623
aI1805
asI557
(lp561
I1725
asI558
(lp562
I73
aI2585
aI876
aI1706
aI1189
asI559
(lp563
I472
aI1182
aI1579
asI560
(lp564
I2526
aI774
asI561
(lp565
I1016
asI562
(lp566
I1483
aI1735
aI704
aI2450
asI563
(lp567
I1701
aI2045
aI109
aI1337
aI318
aI1337
asI564
(lp568
I1262
aI2476
aI189
asI565
(lp569
I1398
aI513
aI244
aI1361
aI1610
aI1723
aI1528
aI526
aI2279
aI1038
aI427
aI687
aI1610
asI566
(lp570
I1986
aI1907
asI567
(lp571
I760
aI536
aI1262
aI631
aI110
aI290
aI1513
asI568
(lp572
I1810
aI1116
aI1223
aI1223
asI569
(lp573
I1759
aI2512
asI570
(lp574
I201
aI2430
asI571
(lp575
I696
aI1570
asI572
(lp576
I1416
aI2025
aI2418
asI573
(lp577
I505
aI306
aI643
aI1313
aI2407
asI574
(lp578
I1692
aI576
aI2001
asI575
(lp579
I2283
asI576
(lp580
I1810
aI665
aI2348
aI503
aI574
aI665
asI577
(lp581
I1518
aI870
aI230
aI906
aI2351
aI2352
aI2353
aI2354
aI394
aI849
aI1063
aI1129
asI578
(lp582
I266
aI1879
aI1974
aI1105
asI579
(lp583
I1808
aI994
aI1134
asI580
(lp584
I1358
aI744
aI2444
aI1742
aI2445
aI1758
aI1765
aI59
asI581
(lp585
I1623
aI1792
aI1616
aI306
aI118
aI454
asI582
(lp586
I444
aI140
aI140
aI2548
aI2549
asI583
(lp587
I75
aI2224
aI284
aI2224
aI2225
asI584
(lp588
I340
aI623
aI2463
aI2289
aI2464
asI585
(lp589
I2526
asI586
(lp590
I1224
aI1218
aI74
aI94
aI2155
aI94
asI587
(lp591
I1032
aI1032
asI588
(lp592
I33
aI442
aI2383
aI698
asI589
(lp593
I1624
aI121
aI1158
aI980
asI590
(lp594
I1954
aI1441
asI591
(lp595
I1423
aI1017
aI1078
aI2472
aI642
asI592
(lp596
I2669
asI593
(lp597
I415
aI1115
aI1474
asI594
(lp598
I2195
aI663
asI595
(lp599
I2176
aI1016
aI1256
asI596
(lp600
I1914
aI644
aI175
aI496
aI992
aI41
asI597
(lp601
I1628
aI1104
asI598
(lp602
I157
aI547
aI1003
aI1107
aI521
aI766
aI2138
aI1299
aI316
aI869
aI143
aI480
aI1864
aI1821
aI201
aI519
aI968
aI637
aI297
aI1297
aI845
aI48
aI1823
aI1636
aI24
aI1301
aI1870
aI1473
aI1573
aI1875
aI1100
aI165
aI2707
aI1473
asI599
(lp603
I1271
aI1093
asI600
(lp604
I2394
asI601
(lp605
I2229
asI602
(lp606
I148
aI378
asI603
(lp607
I2045
aI716
aI1248
aI795
aI1821
aI79
aI1873
asI604
(lp608
I1914
aI1652
aI1351
aI69
aI2109
asI605
(lp609
I1107
aI2534
asI606
(lp610
I2230
aI2360
aI1666
aI531
aI27
aI2361
asI607
(lp611
I1213
aI1664
aI298
asI608
(lp612
I1623
aI306
aI103
aI191
aI2080
asI609
(lp613
I1358
aI2446
aI59
aI883
aI534
aI1041
aI2447
aI2448
asI610
(lp614
I109
aI2287
aI2288
aI826
aI234
aI2481
aI114
asI611
(lp615
I2690
asI612
(lp616
I2235
asI613
(lp617
I1358
aI341
asI614
(lp618
I1475
aI2470
aI2470
aI888
asI615
(lp619
I59
aI2443
asI616
(lp620
I1358
aI2365
aI1739
aI2503
asI617
(lp621
I2034
aI705
asI618
(lp622
I288
aI938
asI619
(lp623
I65
aI239
asI620
(lp624
I469
aI2534
aI923
asI621
(lp625
I2018
aI1332
aI249
aI1978
asI622
(lp626
I1951
aI1952
aI1002
aI886
asI623
(lp627
I444
aI584
aI2464
aI2289
aI140
aI515
asI624
(lp628
I1042
aI1232
asI625
(lp629
I1024
asI626
(lp630
I1358
aI372
aI2556
aI2558
asI627
(lp631
I2122
aI2238
aI2335
aI442
asI628
(lp632
I1764
aI1169
aI2546
aI1725
asI629
(lp633
I174
aI883
aI534
asI630
(lp634
I973
asI631
(lp635
I567
aI2358
asI632
(lp636
I1430
asI633
(lp637
I1701
aI0
aI1866
asI634
(lp638
I2227
aI300
asI635
(lp639
I2058
asI636
(lp640
I2233
asI637
(lp641
I598
aI1641
asI638
(lp642
I783
aI1773
aI2387
aI893
aI808
aI924
aI271
asI639
(lp643
I900
asI640
(lp644
I2420
aI395
aI894
aI765
aI1090
aI1598
asI641
(lp645
I2704
asI642
(lp646
I2472
aI591
asI643
(lp647
I1538
aI573
aI1167
aI2407
asI644
(lp648
I711
aI728
aI2177
aI596
aI41
aI1258
asI645
(lp649
I1358
aI1824
aI1898
aI1899
aI1267
aI1900
aI1495
aI950
aI1895
aI891
aI1901
aI1826
asI646
(lp650
I119
asI647
(lp651
I468
aI1267
aI541
aI904
aI1360
asI648
(lp652
I1441
asI649
(lp653
I1171
aI1457
asI650
(lp654
I1250
aI1486
aI1557
aI1685
aI1756
aI819
aI2083
asI651
(lp655
I2023
aI1984
aI55
aI885
aI2024
aI1667
aI2156
asI652
(lp656
I470
aI1
asI653
(lp657
I1231
asI654
(lp658
I1
asI655
(lp659
I487
aI306
aI2080
asI656
(lp660
I306
aI350
aI2090
asI657
(lp661
I1254
aI1740
aI1229
aI513
aI2440
aI357
aI2522
aI1254
aI2442
aI867
aI871
aI2523
aI1729
asI658
(lp662
I2147
asI659
(lp663
I77
aI354
aI1803
asI660
(lp664
I1623
aI139
asI661
(lp665
I1353
aI1878
aI344
aI1028
aI935
aI1879
aI1880
aI830
aI1881
aI807
aI1045
aI1882
aI1883
aI97
aI1884
aI1885
asI662
(lp666
I932
asI663
(lp667
I2195
aI594
asI664
(lp668
I1701
asI665
(lp669
I397
aI2120
aI576
aI2122
aI576
aI332
asI666
(lp670
I1973
aI279
aI518
aI1850
asI667
(lp671
I2364
aI456
aI2472
asI668
(lp672
I436
asI669
(lp673
I729
aI1086
aI1124
asI670
(lp674
I267
aI2606
asI671
(lp675
I2025
aI441
aI973
aI451
asI672
(lp676
I2456
aI376
asI673
(lp677
I1986
aI1907
asI674
(lp678
I1907
asI675
(lp679
I2356
aI94
asI676
(lp680
I1955
aI2235
aI410
asI677
(lp681
I954
asI678
(lp682
I733
aI377
asI679
(lp683
I1395
asI680
(lp684
I2199
asI681
(lp685
I1986
aI1445
aI1446
aI1171
aI1445
aI1446
asI682
(lp686
I1224
aI973
asI683
(lp687
I2169
aI834
asI684
(lp688
I1358
aI1282
asI685
(lp689
I554
asI686
(lp690
I1358
aI2366
asI687
(lp691
I1358
aI1171
aI1710
aI1033
aI1586
aI1610
aI1725
aI565
aI480
aI173
aI2359
aI1546
aI2372
aI290
aI1721
asI688
(lp692
I1257
aI492
asI689
(lp693
I1358
aI1317
aI1169
aI1721
aI1292
asI690
(lp694
I311
asI691
(lp695
I2034
aI2130
asI692
(lp696
I2629
asI693
(lp697
I2108
aI763
aI95
aI1851
aI334
asI694
(lp698
I1478
aI2516
asI695
(lp699
I1336
aI1681
aI1682
aI1998
aI2319
aI1012
aI1790
aI407
aI948
asI696
(lp700
I88
aI277
aI571
aI1570
asI697
(lp701
I30
aI1080
asI698
(lp702
I33
aI1015
aI442
aI588
aI286
asI699
(lp703
I1701
aI2045
aI2327
asI700
(lp704
I1691
asI701
(lp705
I735
aI739
aI129
aI2062
asI702
(lp706
I777
aI993
aI1637
aI2101
aI1368
aI822
aI779
aI2069
aI2070
asI703
(lp707
I2497
aI1961
aI801
asI704
(lp708
I1483
aI969
aI562
aI389
aI2450
aI1743
aI1412
aI2113
aI2113
asI705
(lp709
I429
aI617
asI706
(lp710
I1240
aI2238
aI963
aI805
aI2645
asI707
(lp711
I763
asI708
(lp712
I1358
aI2212
aI2216
aI836
asI709
(lp713
I1896
aI1903
asI710
(lp714
I51
aI2212
aI2213
aI1392
asI711
(lp715
I2111
aI1285
aI496
aI539
aI252
aI414
aI2112
aI2113
aI644
asI712
(lp716
I1464
aI850
aI2480
asI713
(lp717
I1044
asI714
(lp718
I1385
aI148
aI148
aI48
asI715
(lp719
I2291
asI716
(lp720
I1810
aI603
aI1821
aI2409
asI717
(lp721
I1907
asI718
(lp722
I1416
aI438
aI437
aI2059
aI2261
asI719
(lp723
I1623
aI1810
aI306
aI302
aI303
asI720
(lp724
I1441
aI392
aI371
asI721
(lp725
I1034
asI722
(lp726
I1273
aI1874
aI2500
aI1567
aI2501
aI1567
asI723
(lp727
I2614
aI9
aI9
asI724
(lp728
I1344
aI2394
aI2395
asI725
(lp729
I1652
aI2071
aI440
aI1104
aI1137
asI726
(lp730
I2671
aI1533
aI177
asI727
(lp731
I1386
aI2570
asI728
(lp732
I1296
aI644
aI2388
aI2553
aI1070
asI729
(lp733
I1701
aI2534
aI1221
aI1159
aI669
asI730
(lp734
I398
asI731
(lp735
I901
aI2199
aI1279
aI2203
asI732
(lp736
I364
aI1756
aI2685
aI296
aI263
asI733
(lp737
I2035
aI1062
aI1265
aI2011
aI2301
aI2302
aI1329
aI759
aI1817
aI678
aI1294
aI1818
aI401
aI2303
aI383
aI1160
aI2304
aI218
aI2291
aI794
aI1682
aI2268
aI1192
aI45
aI377
aI435
aI94
aI2008
aI862
asI734
(lp738
I95
aI1841
aI2277
aI1006
aI2197
aI1388
aI964
aI408
aI736
aI2056
aI751
aI2202
aI736
asI735
(lp739
I1958
aI1881
aI2060
aI2061
aI2062
aI1237
aI701
aI739
aI739
aI1543
aI1237
asI736
(lp740
I95
aI734
aI1841
aI1006
aI1631
aI2197
aI1388
aI964
aI734
aI751
aI2202
asI737
(lp741
I415
aI1974
aI1630
aI88
aI2136
aI2178
aI1269
asI738
(lp742
I1927
aI2162
aI1080
aI405
aI30
asI739
(lp743
I1958
aI735
aI1881
aI701
aI735
aI1543
aI1237
aI393
asI740
(lp744
I1002
aI2033
aI141
asI741
(lp745
I2093
aI1011
aI1088
aI1282
aI831
asI742
(lp746
I1483
aI1743
aI1620
asI743
(lp747
I1986
aI88
aI745
aI1239
aI1570
aI160
asI744
(lp748
I1358
aI580
aI1154
aI223
asI745
(lp749
I1986
aI1995
aI366
aI1127
aI743
aI160
aI2009
aI553
asI746
(lp750
I1303
aI2006
aI281
asI747
(lp751
I1538
aI113
aI282
aI540
aI282
asI748
(lp752
I1358
aI1103
aI1169
aI274
aI1617
aI1550
aI1732
aI1568
aI1374
aI1145
aI1145
aI2553
asI749
(lp753
I2155
aI274
aI1333
asI750
(lp754
I1441
asI751
(lp755
I1204
aI734
aI736
aI2198
aI2202
asI752
(lp756
I957
aI2083
aI2451
asI753
(lp757
I1880
aI1269
asI754
(lp758
I1358
aI1483
aI2450
asI755
(lp759
I1898
aI2071
aI1277
asI756
(lp760
I256
aI2186
aI2187
aI433
aI1469
aI1472
aI240
aI1692
aI885
aI172
aI512
aI1692
asI757
(lp761
I1358
aI2421
aI1284
asI758
(lp762
I1358
aI111
aI111
aI2492
aI1762
asI759
(lp763
I1703
aI733
asI760
(lp764
I2459
aI567
aI1513
aI2460
aI1426
aI985
asI761
(lp765
I1401
aI1443
asI762
(lp766
I2448
aI859
asI763
(lp767
I1635
aI707
aI693
asI764
(lp768
I1358
aI796
aI1612
aI1606
asI765
(lp769
I2367
aI640
aI1147
asI766
(lp770
I598
aI316
aI1297
aI1868
aI845
asI767
(lp771
I1701
aI54
aI873
aI2314
asI768
(lp772
I1566
aI1723
aI1724
asI769
(lp773
I1927
asI770
(lp774
I2117
aI1894
asI771
(lp775
I55
aI1080
aI65
aI1156
aI1156
asI772
(lp776
I908
asI773
(lp777
I1072
aI1505
asI774
(lp778
I560
asI775
(lp779
I2075
aI180
aI171
asI776
(lp780
I1413
aI1542
aI402
asI777
(lp781
I702
asI778
(lp782
I1914
aI1224
aI1370
aI779
aI1919
asI779
(lp783
I1914
aI1973
aI1224
aI702
aI1370
aI1592
aI1919
aI778
asI780
(lp784
I2341
asI781
(lp785
I2402
aI218
asI782
(lp786
I245
asI783
(lp787
I1061
aI2376
aI638
aI893
aI1143
asI784
(lp788
I1701
aI960
asI785
(lp789
I1664
asI786
(lp790
I947
asI787
(lp791
I438
aI55
aI325
asI788
(lp792
I1952
aI2205
aI1031
aI2041
aI2033
asI789
(lp793
I1703
aI1240
asI790
(lp794
I1810
aI482
aI180
aI171
aI1548
asI791
(lp795
I2034
aI2130
aI180
asI792
(lp796
I1558
aI2555
aI1986
aI218
aI1488
asI793
(lp797
I1896
aI1902
aI1903
aI2592
asI794
(lp798
I429
aI1160
aI733
aI1590
aI863
asI795
(lp799
I1810
aI603
aI1645
asI796
(lp800
I1358
aI1103
aI1317
aI764
asI797
(lp801
I1358
aI800
aI1833
aI73
aI2359
asI798
(lp802
I1381
aI1793
aI1794
aI1795
asI799
(lp803
I961
asI800
(lp804
I889
aI797
aI820
aI1834
asI801
(lp805
I1470
aI703
aI1961
aI2516
asI802
(lp806
I121
aI1307
asI803
(lp807
I2100
aI528
asI804
(lp808
I1307
asI805
(lp809
I275
aI2236
aI963
aI706
asI806
(lp810
I403
aI1383
asI807
(lp811
I661
aI1955
aI1226
aI1956
asI808
(lp812
I638
aI2383
aI1785
aI924
asI809
(lp813
I548
aI2229
aI266
aI2228
aI1115
asI810
(lp814
I1068
asI811
(lp815
I900
aI855
asI812
(lp816
I1413
aI1542
aI507
aI1300
aI251
asI813
(lp817
I2376
aI339
asI814
(lp818
I1158
aI2382
aI893
aI2383
asI815
(lp819
I88
aI2018
aI55
aI1344
aI1174
aI2017
asI816
(lp820
I436
aI2405
aI2282
aI1842
aI120
aI483
aI1980
asI817
(lp821
I2456
aI221
aI220
aI90
aI1736
aI155
aI156
aI1763
asI818
(lp822
I415
aI1999
asI819
(lp823
I1358
aI650
aI154
aI364
aI1606
asI820
(lp824
I889
aI800
asI821
(lp825
I222
asI822
(lp826
I1973
aI702
asI823
(lp827
I1358
aI1169
aI1765
aI2221
aI481
asI824
(lp828
I1831
asI825
(lp829
I1765
asI826
(lp830
I490
aI2287
aI610
aI2528
asI827
(lp831
I1999
aI1921
aI1039
aI324
asI828
(lp832
I1795
aI444
aI2464
asI829
(lp833
I1816
asI830
(lp834
I661
aI1914
aI2100
asI831
(lp835
I1358
aI1638
aI2093
aI1011
aI741
aI136
aI1733
asI832
(lp836
I2600
asI833
(lp837
I2036
aI178
aI207
aI2495
aI1641
aI2595
aI1678
aI1130
aI345
aI1678
asI834
(lp838
I2168
aI683
aI131
aI876
asI835
(lp839
I1810
aI1121
aI1134
aI1654
asI836
(lp840
I519
aI1572
aI708
aI1013
aI2078
aI1131
aI1343
aI2403
asI837
(lp841
I1422
aI2670
aI2248
asI838
(lp842
I868
aI1131
aI279
aI270
aI2280
aI2280
aI242
asI839
(lp843
I485
aI2277
aI965
asI840
(lp844
I2481
aI1903
asI841
(lp845
I88
aI2034
asI842
(lp846
I87
aI161
aI2016
aI118
asI843
(lp847
I505
aI548
aI2339
aI2542
asI844
(lp848
I1902
aI472
aI264
aI264
asI845
(lp849
I598
aI316
aI766
asI846
(lp850
I2146
aI374
aI273
asI847
(lp851
I2189
aI2422
asI848
(lp852
I1373
aI985
aI228
asI849
(lp853
I577
aI2351
aI394
aI1993
asI850
(lp854
I1464
aI2278
aI712
asI851
(lp855
I88
aI2018
aI1309
aI415
asI852
(lp856
I1800
asI853
(lp857
I1358
aI1169
aI1762
asI854
(lp858
I857
aI344
aI935
aI470
aI1097
aI203
aI1884
aI1097
aI203
asI855
(lp859
I2493
aI811
asI856
(lp860
I2248
aI1390
asI857
(lp861
I470
aI1246
aI854
aI1097
aI203
asI858
(lp862
I2182
aI2502
asI859
(lp863
I487
aI2096
aI1030
aI762
aI1199
asI860
(lp864
I1427
aI1527
aI1758
asI861
(lp865
I95
aI2330
aI2068
aI1397
asI862
(lp866
I733
aI38
aI38
asI863
(lp867
I429
aI1160
aI1590
aI38
aI794
asI864
(lp868
I2210
aI104
aI1065
asI865
(lp869
I2653
asI866
(lp870
I1049
aI40
asI867
(lp871
I1229
aI657
aI2439
aI2440
aI2522
aI1252
aI2442
aI871
aI2523
asI868
(lp872
I988
aI1341
aI1195
aI2276
aI1844
aI2099
aI838
aI1526
asI869
(lp873
I1701
aI598
aI232
aI1440
aI1864
aI1864
asI870
(lp874
I1119
aI2126
aI577
asI871
(lp875
I1229
aI657
aI2530
aI867
aI2652
asI872
(lp876
I1413
aI1542
aI1340
asI873
(lp877
I1358
aI261
aI2313
aI767
aI1479
aI1708
asI874
(lp878
I1701
asI875
(lp879
I310
aI1945
aI1950
aI1942
aI914
asI876
(lp880
I1358
aI2168
aI73
aI2584
aI558
aI834
asI877
(lp881
I1413
aI1542
aI1177
aI1176
aI1935
aI1300
asI878
(lp882
I436
aI2326
aI885
asI879
(lp883
I1558
aI397
asI880
(lp884
I1013
aI973
asI881
(lp885
I1199
aI1155
asI882
(lp886
I1358
asI883
(lp887
I629
aI609
aI933
aI227
asI884
(lp888
I89
aI152
asI885
(lp889
I436
aI651
aI756
aI878
aI1039
aI2386
aI2024
asI886
(lp890
I622
aI1400
asI887
(lp891
I1623
aI1624
aI306
aI910
aI239
asI888
(lp892
I1475
aI1556
aI614
asI889
(lp893
I800
aI1830
aI1831
aI1832
aI820
asI890
(lp894
I1269
aI1314
asI891
(lp895
I645
aI2608
aI1674
asI892
(lp896
I310
aI1950
asI893
(lp897
I638
aI783
aI911
aI814
aI1051
aI2383
aI2383
asI894
(lp898
I2367
aI640
aI1845
asI895
(lp899
I440
aI35
aI1187
aI1296
aI1913
asI896
(lp900
I465
asI897
(lp901
I1410
aI1983
aI146
aI1907
aI1156
aI1152
aI1494
aI2295
asI898
(lp902
I1835
aI92
aI1836
aI2160
asI899
(lp903
I1858
aI1986
aI297
aI1055
asI900
(lp904
I639
aI811
asI901
(lp905
I2186
aI731
aI1042
aI2199
aI2073
aI1279
asI902
(lp906
I1358
aI1284
aI1604
aI1604
asI903
(lp907
I2030
aI2031
aI446
asI904
(lp908
I541
aI647
aI1360
aI1959
aI379
aI132
aI1312
asI905
(lp909
I1483
aI1282
aI389
aI1620
asI906
(lp910
I577
aI2351
aI2353
asI907
(lp911
I1351
aI1916
asI908
(lp912
I1013
aI772
asI909
(lp913
I445
asI910
(lp914
I1623
aI139
aI306
aI887
aI239
aI2085
asI911
(lp915
I33
aI2376
aI893
aI1534
aI1051
asI912
(lp916
I2130
asI913
(lp917
I220
asI914
(lp918
I150
aI875
asI915
(lp919
I1740
aI1035
aI2597
aI2415
asI916
(lp920
I1026
asI917
(lp921
I2639
asI918
(lp922
I1542
aI2065
aI1098
asI919
(lp923
I1358
asI920
(lp924
I316
aI1893
asI921
(lp925
I1914
aI2134
aI2293
asI922
(lp926
I1307
aI1406
asI923
(lp927
I620
asI924
(lp928
I638
aI2383
aI808
asI925
(lp929
I1222
asI926
(lp930
I1862
asI927
(lp931
I2140
aI1316
aI17
asI928
(lp932
I327
aI2063
aI1326
asI929
(lp933
I1358
aI2627
asI930
(lp934
I380
aI2569
aI477
asI931
(lp935
I1433
asI932
(lp936
I662
asI933
(lp937
I883
aI534
aI1038
asI934
(lp938
I94
aI2356
aI94
asI935
(lp939
I661
aI973
aI854
aI451
aI1873
asI936
(lp940
I1067
aI2530
aI246
aI2515
aI2515
aI2641
asI937
(lp941
I2096
aI1180
aI1304
aI1304
asI938
(lp942
I2230
aI618
aI2027
asI939
(lp943
I2173
asI940
(lp944
I1829
asI941
(lp945
I2517
asI942
(lp946
I1952
aI1924
asI943
(lp947
I1196
asI944
(lp948
I2138
asI945
(lp949
I1072
aI1911
aI2388
aI1512
asI946
(lp950
I1966
aI2623
asI947
(lp951
I786
asI948
(lp952
I1395
aI1681
aI1682
aI695
asI949
(lp953
I523
asI950
(lp954
I645
aI437
aI93
asI951
(lp955
I1358
aI328
asI952
(lp956
I517
aI2546
asI953
(lp957
I2565
aI2566
aI2567
aI2565
asI954
(lp958
I1112
aI677
asI955
(lp959
I1914
aI175
aI1482
asI956
(lp960
I2677
aI492
asI957
(lp961
I1358
aI1154
aI752
aI1557
aI1685
aI1757
aI2167
aI2083
asI958
(lp962
I1072
aI306
aI1798
asI959
(lp963
I2529
asI960
(lp964
I1776
aI2650
aI784
asI961
(lp965
I799
aI2555
aI1728
aI2599
asI962
(lp966
I1806
aI1062
aI1665
aI1807
aI1808
aI1809
aI1810
asI963
(lp967
I1141
aI29
aI2399
aI2400
aI1785
aI1417
aI2240
aI2401
aI203
aI1703
aI375
aI1157
aI706
aI1094
aI258
aI43
aI1443
aI805
aI2434
asI964
(lp968
I1388
aI257
aI965
aI734
aI736
aI2198
asI965
(lp969
I2197
aI964
aI1693
aI839
asI966
(lp970
I415
aI415
asI967
(lp971
I2659
asI968
(lp972
I1986
aI598
aI1603
asI969
(lp973
I1483
aI1735
aI704
aI2450
aI1743
asI970
(lp974
I1358
aI2365
aI16
aI364
aI466
asI971
(lp975
I107
aI1650
asI972
(lp976
I2247
aI1000
aI2579
aI2580
asI973
(lp977
I1072
aI306
aI671
aI935
aI880
aI2153
aI277
aI2019
aI1583
aI115
aI252
aI630
aI682
aI1142
aI2016
aI176
aI454
asI974
(lp978
I1496
asI975
(lp979
I2097
asI976
(lp980
I998
aI1431
asI977
(lp981
I1281
asI978
(lp982
I1358
aI998
asI979
(lp983
I524
aI1303
aI2207
aI1503
aI1957
aI1839
asI980
(lp984
I1623
aI1367
aI121
aI589
asI981
(lp985
I1221
aI1159
asI982
(lp986
I2175
aI2176
aI1458
aI1091
aI1256
asI983
(lp987
I2130
asI984
(lp988
I543
aI1068
aI2265
asI985
(lp989
I1358
aI1149
aI1073
aI848
aI760
asI986
(lp990
I2697
asI987
(lp991
I1175
asI988
(lp992
I868
asI989
(lp993
I2285
aI1645
aI1507
aI2436
asI990
(lp994
I1542
aI310
aI1054
asI991
(lp995
I307
asI992
(lp996
I596
aI496
asI993
(lp997
I702
aI2155
asI994
(lp998
I2309
aI579
aI1329
aI1219
asI995
(lp999
I1309
aI2385
aI1912
asI996
(lp1000
I2248
aI2518
aI368
aI1257
aI1135
aI428
asI997
(lp1001
I1837
aI183
aI182
aI183
asI998
(lp1002
I978
aI976
aI1103
aI2365
aI1431
aI1284
aI1431
asI999
(lp1003
I1358
aI346
asI1000
(lp1004
I281
aI2543
aI1325
aI972
asI1001
(lp1005
I12
aI2662
asI1002
(lp1006
I622
aI2034
aI1952
aI2033
aI740
aI141
asI1003
(lp1007
I1687
aI598
aI2607
aI363
aI1373
asI1004
(lp1008
I1810
aI1489
asI1005
(lp1009
I1541
asI1006
(lp1010
I734
aI736
aI1302
asI1007
(lp1011
I1742
aI1154
aI526
aI2466
asI1008
(lp1012
I1416
aI2059
aI1922
aI2575
asI1009
(lp1013
I306
aI2096
asI1010
(lp1014
I1966
aI443
asI1011
(lp1015
I741
aI831
asI1012
(lp1016
I1336
aI1681
aI1682
aI695
aI1797
asI1013
(lp1017
I1840
aI1841
aI510
aI1842
aI1843
aI1521
aI530
aI1403
aI880
aI334
aI69
aI1293
aI1844
aI1729
aI506
aI1845
aI1583
aI1120
aI1625
aI908
aI471
aI1644
aI1846
aI1675
aI1847
aI1848
aI1849
aI1464
aI1850
aI1851
aI181
aI1661
aI2045
aI836
asI1014
(lp1018
I1558
asI1015
(lp1019
I1385
aI1068
aI1618
aI1425
aI2262
aI1788
aI1789
aI698
aI1452
aI1519
aI1143
aI2263
aI1481
asI1016
(lp1020
I561
aI2176
aI595
aI4
aI1256
asI1017
(lp1021
I1475
aI2472
aI591
asI1018
(lp1022
I2378
asI1019
(lp1023
I1457
asI1020
(lp1024
I2075
aI218
aI180
aI2077
aI2667
asI1021
(lp1025
I2309
asI1022
(lp1026
I1961
aI379
aI132
aI1168
aI541
aI1962
aI1276
aI1963
aI1276
aI1963
asI1023
(lp1027
I1701
aI1986
aI2568
asI1024
(lp1028
I625
asI1025
(lp1029
I1042
aI373
asI1026
(lp1030
I2034
aI1303
aI916
aI2531
asI1027
(lp1031
I2394
asI1028
(lp1032
I661
asI1029
(lp1033
I118
aI2166
asI1030
(lp1034
I859
asI1031
(lp1035
I1952
aI48
aI788
asI1032
(lp1036
I587
aI587
asI1033
(lp1037
I2168
aI687
aI173
asI1034
(lp1038
I721
asI1035
(lp1039
I1740
aI73
aI1833
aI915
aI1486
aI1801
aI1433
asI1036
(lp1040
I2562
asI1037
(lp1041
I2654
aI2447
aI403
asI1038
(lp1042
I1358
aI565
aI2503
aI933
asI1039
(lp1043
I436
aI827
aI885
asI1040
(lp1044
I1358
aI1317
aI1169
aI1765
asI1041
(lp1045
I1358
aI1243
aI1466
aI2390
aI2448
aI609
asI1042
(lp1046
I1628
aI1025
aI485
aI1198
aI1118
aI624
aI901
aI2073
aI1047
aI2055
aI2198
aI1125
aI373
aI6
aI1517
aI1925
aI2051
aI1926
aI2052
aI74
aI1481
aI2054
aI2333
asI1043
(lp1047
I2309
aI21
asI1044
(lp1048
I713
asI1045
(lp1049
I1773
aI661
aI306
aI109
aI1571
asI1046
(lp1050
I91
aI2336
aI2587
aI2387
aI1510
aI1510
asI1047
(lp1051
I1042
aI2333
aI1588
aI1588
asI1048
(lp1052
I462
asI1049
(lp1053
I1894
aI866
aI2610
aI1432
asI1050
(lp1054
I1634
aI2563
aI1569
aI1230
aI194
aI1081
aI2564
aI1380
aI1342
aI1320
aI1230
aI1342
asI1051
(lp1055
I33
aI2122
aI442
aI893
aI2383
aI911
asI1052
(lp1056
I1701
asI1053
(lp1057
I229
aI1405
aI229
asI1054
(lp1058
I1950
aI1577
aI990
aI1099
aI1605
aI1432
asI1055
(lp1059
I1577
aI899
asI1056
(lp1060
I167
aI2482
asI1057
(lp1061
I2409
asI1058
(lp1062
I1195
asI1059
(lp1063
I1600
asI1060
(lp1064
I1441
asI1061
(lp1065
I783
aI1196
aI2376
asI1062
(lp1066
I962
aI1810
aI733
aI1192
asI1063
(lp1067
I1518
aI394
aI577
asI1064
(lp1068
I2351
aI2352
aI394
asI1065
(lp1069
I864
aI401
aI104
aI1699
aI85
aI2211
aI1096
asI1066
(lp1070
I1574
asI1067
(lp1071
I1830
aI170
aI2307
aI936
aI2448
aI1216
aI59
asI1068
(lp1072
I1015
aI984
aI810
asI1069
(lp1073
I239
asI1070
(lp1074
I1358
aI1167
aI728
aI1829
aI1470
aI1072
aI1725
asI1071
(lp1075
I2248
aI2671
aI1257
aI1135
asI1072
(lp1076
I1358
aI973
aI773
aI1797
aI244
aI958
aI342
aI1483
aI1798
aI1799
aI1478
aI1505
aI1262
aI1800
aI1733
aI1801
aI1802
aI417
aI1803
aI20
aI1740
aI1804
aI236
aI306
aI1805
aI945
aI189
aI1784
aI1070
aI1725
asI1073
(lp1077
I2163
aI316
aI985
asI1074
(lp1078
I1501
aI1675
aI1676
asI1075
(lp1079
I1701
aI1124
asI1076
(lp1080
I116
asI1077
(lp1081
I1483
aI2450
aI389
aI2113
asI1078
(lp1082
I591
asI1079
(lp1083
I210
aI1914
aI55
aI1218
asI1080
(lp1084
I2162
aI697
aI149
aI2344
aI61
aI771
aI738
asI1081
(lp1085
I1050
aI2563
asI1082
(lp1086
I1534
aI2386
asI1083
(lp1087
I2114
aI1232
aI1450
aI321
asI1084
(lp1088
I1213
asI1085
(lp1089
I2394
aI1421
aI2109
aI2110
asI1086
(lp1090
I2247
aI669
aI2579
aI1124
aI2579
asI1087
(lp1091
I2434
aI89
asI1088
(lp1092
I1089
aI741
asI1089
(lp1093
I2086
aI1088
aI1552
aI399
asI1090
(lp1094
I2367
aI1271
aI1093
aI15
aI640
aI1147
aI1598
asI1091
(lp1095
I982
aI2176
aI1256
asI1092
(lp1096
I1171
aI2501
aI1106
aI2501
asI1093
(lp1097
I2367
aI1271
aI1598
aI15
aI1090
aI15
aI599
asI1094
(lp1098
I963
aI89
aI1369
aI258
aI1443
aI1653
aI1443
asI1095
(lp1099
I1810
aI1986
aI1325
aI230
aI298
aI2613
asI1096
(lp1100
I1065
aI411
aI397
aI1633
aI401
asI1097
(lp1101
I857
aI854
aI1115
aI1869
aI470
aI854
asI1098
(lp1102
I918
aI2066
aI2067
aI1477
asI1099
(lp1103
I1577
aI1054
aI1607
asI1100
(lp1104
I1701
aI598
asI1101
(lp1105
I2146
aI374
aI509
aI2148
aI1242
asI1102
(lp1106
I2464
aI2290
aI515
aI1207
aI2465
aI515
asI1103
(lp1107
I1358
aI1123
aI1718
aI1480
aI1886
aI53
aI72
aI1520
aI1887
aI1888
aI796
aI1748
aI263
aI1284
aI1760
aI748
aI998
asI1104
(lp1108
I597
aI2264
aI725
asI1105
(lp1109
I578
asI1106
(lp1110
I1874
aI2501
aI1092
asI1107
(lp1111
I1810
aI2243
aI598
aI2379
aI605
asI1108
(lp1112
I390
asI1109
(lp1113
I2671
aI1533
aI2674
aI2675
asI1110
(lp1114
I2025
aI1224
aI2295
aI1120
asI1111
(lp1115
I1119
aI2126
aI1273
aI2129
aI2125
asI1112
(lp1116
I954
asI1113
(lp1117
I107
aI1650
asI1114
(lp1118
I1717
aI2560
asI1115
(lp1119
I470
aI593
aI809
aI2276
aI1097
aI203
aI1529
asI1116
(lp1120
I568
aI1223
asI1117
(lp1121
I1628
aI80
aI434
aI2499
asI1118
(lp1122
I1416
aI1042
aI2155
aI74
asI1119
(lp1123
I2124
aI2128
aI2125
aI1663
aI870
aI1235
aI1462
aI2129
aI2127
aI1111
aI2126
aI1273
aI2129
aI1697
asI1120
(lp1124
I1013
aI2025
aI2194
aI1583
aI1110
asI1121
(lp1125
I1810
aI1410
aI2136
aI835
aI1131
aI1655
asI1122
(lp1126
I458
asI1123
(lp1127
I1358
aI1103
asI1124
(lp1128
I669
aI1075
aI1086
asI1125
(lp1129
I1042
aI2332
asI1126
(lp1130
I1823
asI1127
(lp1131
I1986
aI745
aI1583
aI553
asI1128
(lp1132
I1441
aI1954
aI2275
asI1129
(lp1133
I1518
aI577
aI2351
aI2352
aI2353
asI1130
(lp1134
I833
aI2495
asI1131
(lp1135
I1224
aI1538
aI2280
aI242
aI1500
aI510
aI2281
aI1930
aI1121
aI836
aI1215
aI1133
aI2185
aI436
aI1655
aI838
aI2282
aI490
aI1909
aI2283
aI2155
aI1655
asI1132
(lp1136
I311
asI1133
(lp1137
I1131
aI1538
aI1500
aI2185
asI1134
(lp1138
I2296
aI835
aI579
asI1135
(lp1139
I2671
aI1257
aI1071
aI2678
aI2518
aI2248
aI1257
aI996
asI1136
(lp1140
I73
aI2359
aI2554
aI1189
asI1137
(lp1141
I725
asI1138
(lp1142
I2248
aI82
aI2250
asI1139
(lp1143
I1628
aI2054
aI2182
aI52
asI1140
(lp1144
I476
aI476
asI1141
(lp1145
I963
aI2294
asI1142
(lp1146
I973
aI2326
asI1143
(lp1147
I2262
aI1015
aI2155
aI2376
aI783
aI1618
aI2262
aI2376
asI1144
(lp1148
I1623
aI1245
asI1145
(lp1149
I1358
aI1169
aI748
aI748
asI1146
(lp1150
I36
aI1505
aI1506
aI2254
asI1147
(lp1151
I395
aI765
aI2367
aI1090
aI2371
aI1598
aI1865
asI1148
(lp1152
I1317
aI2221
aI2220
aI1747
asI1149
(lp1153
I1358
aI1986
aI1894
aI985
asI1150
(lp1154
I1243
asI1151
(lp1155
I2700
aI2570
asI1152
(lp1156
I1927
aI897
aI2155
aI2416
asI1153
(lp1157
I1401
aI258
asI1154
(lp1158
I1358
aI957
aI2514
aI1714
aI1715
aI744
aI357
aI2515
aI1007
aI1742
aI223
asI1155
(lp1159
I1229
aI881
asI1156
(lp1160
I55
aI897
aI65
aI771
aI771
asI1157
(lp1161
I963
aI89
aI2240
aI2463
asI1158
(lp1162
I306
aI302
aI121
aI814
aI1635
aI2251
aI589
aI2252
aI2382
asI1159
(lp1163
I981
aI2534
aI729
asI1160
(lp1164
I401
aI794
aI38
aI2268
aI863
aI733
asI1161
(lp1165
I110
asI1162
(lp1166
I245
aI1510
asI1163
(lp1167
I1402
aI2132
asI1164
(lp1168
I1287
asI1165
(lp1169
I1593
aI145
aI537
aI1593
asI1166
(lp1170
I1986
aI2582
asI1167
(lp1171
I643
aI1070
asI1168
(lp1172
I1022
aI1955
asI1169
(lp1173
I689
aI188
aI1714
aI301
aI439
aI524
aI2220
aI1040
aI1719
aI823
aI1720
aI1731
aI1734
aI1737
aI1358
aI111
aI853
aI2492
aI552
aI2476
aI628
aI748
aI1145
asI1170
(lp1174
I1476
aI404
asI1171
(lp1175
I1855
aI510
aI1355
aI649
aI681
aI1092
aI687
aI2359
aI1909
aI1295
asI1172
(lp1176
I304
aI467
asI1173
(lp1177
I202
aI1250
aI353
asI1174
(lp1178
I88
aI415
aI2394
aI1912
aI162
aI815
asI1175
(lp1179
I2359
aI987
asI1176
(lp1180
I1542
aI877
aI507
aI1935
aI1935
aI295
asI1177
(lp1181
I1542
aI877
aI1935
aI295
asI1178
(lp1182
I1984
aI2350
aI1908
aI1529
asI1179
(lp1183
I1955
aI410
asI1180
(lp1184
I505
aI1304
aI937
asI1181
(lp1185
I474
asI1182
(lp1186
I472
aI559
aI1183
aI1579
asI1183
(lp1187
I1824
aI472
aI1825
aI1354
aI1182
aI1579
asI1184
(lp1188
I2100
aI1190
asI1185
(lp1189
I1992
aI2358
aI278
aI2589
aI2590
aI2349
aI1460
asI1186
(lp1190
I2535
aI2574
asI1187
(lp1191
I1188
aI895
asI1188
(lp1192
I1187
asI1189
(lp1193
I1358
aI73
aI2359
aI1136
aI558
asI1190
(lp1194
I1387
aI1184
aI37
asI1191
(lp1195
I2241
aI1558
aI2339
asI1192
(lp1196
I733
aI1062
aI1621
asI1193
(lp1197
I306
aI1705
asI1194
(lp1198
I368
aI2670
aI1366
asI1195
(lp1199
I868
aI279
aI270
aI1058
asI1196
(lp1200
I1624
aI1061
aI1367
aI2300
aI943
asI1197
(lp1201
I1998
aI1791
asI1198
(lp1202
I1042
asI1199
(lp1203
I1214
aI1566
aI881
aI1716
aI1599
aI859
asI1200
(lp1204
I2207
aI1502
aI2414
asI1201
(lp1205
I2533
aI2214
aI457
asI1202
(lp1206
I2376
aI1428
aI2336
aI2524
aI1510
asI1203
(lp1207
I1410
aI382
aI461
aI1842
aI424
aI1215
aI2155
asI1204
(lp1208
I1330
aI1838
aI751
aI1839
aI1602
asI1205
(lp1209
I1358
aI1761
aI319
asI1206
(lp1210
I2671
aI1257
asI1207
(lp1211
I2464
aI2290
aI1102
asI1208
(lp1212
I187
asI1209
(lp1213
I1358
aI1737
aI64
asI1210
(lp1214
I1648
asI1211
(lp1215
I507
aI254
asI1212
(lp1216
I1701
asI1213
(lp1217
I1084
aI607
aI1290
asI1214
(lp1218
I73
aI1716
aI1499
aI1199
aI337
aI73
aI1745
asI1215
(lp1219
I1894
aI1131
aI1203
aI270
asI1216
(lp1220
I2446
aI526
aI2503
aI1067
asI1217
(lp1221
I396
aI230
asI1218
(lp1222
I1927
aI2116
aI586
aI1079
asI1219
(lp1223
I78
aI994
aI45
asI1220
(lp1224
I239
asI1221
(lp1225
I1949
aI981
aI729
aI1607
aI1577
asI1222
(lp1226
I1224
aI925
asI1223
(lp1227
I568
aI1116
aI568
asI1224
(lp1228
I2151
aI1525
aI1341
aI1660
aI2152
aI586
aI2153
aI1587
aI2154
aI1370
aI1131
aI2155
aI1732
aI1583
aI1110
aI779
aI1919
aI778
aI1291
aI682
aI1222
aI1526
aI1848
aI1975
aI2156
aI1851
asI1225
(lp1229
I1450
aI2579
asI1226
(lp1230
I1955
aI2528
aI807
aI1956
asI1227
(lp1231
I1269
asI1228
(lp1232
I186
aI2580
aI186
aI1536
asI1229
(lp1233
I1358
aI657
aI2439
aI2440
aI2441
aI1308
aI1627
aI1506
aI1254
aI2442
aI867
aI871
aI1749
aI1155
aI1384
asI1230
(lp1234
I1050
aI1050
aI1342
asI1231
(lp1235
I653
asI1232
(lp1236
I1083
aI624
asI1233
(lp1237
I2433
asI1234
(lp1238
I1703
aI1702
aI1966
aI22
asI1235
(lp1239
I1119
aI2126
aI1462
aI2577
asI1236
(lp1240
I2479
asI1237
(lp1241
I1958
aI735
aI735
aI739
asI1238
(lp1242
I1358
aI154
asI1239
(lp1243
I743
aI2611
aI2027
asI1240
(lp1244
I789
aI2237
aI1702
aI706
aI258
aI1443
asI1241
(lp1245
I1701
aI310
aI1950
asI1242
(lp1246
I2146
aI2148
aI1101
asI1243
(lp1247
I1358
aI1041
aI1150
asI1244
(lp1248
I493
asI1245
(lp1249
I306
aI2080
aI542
aI1770
aI1144
asI1246
(lp1250
I857
asI1247
(lp1251
I1679
asI1248
(lp1252
I2045
aI603
aI1651
asI1249
(lp1253
I1483
aI2556
aI2558
asI1250
(lp1254
I650
aI202
aI2507
aI328
aI1173
asI1251
(lp1255
I1623
aI505
aI306
aI1448
aI102
asI1252
(lp1256
I867
aI2656
asI1253
(lp1257
I302
aI308
asI1254
(lp1258
I657
aI1229
aI657
aI1308
asI1255
(lp1259
I2248
aI198
asI1256
(lp1260
I2176
aI1016
aI4
aI1091
aI982
aI2176
aI1761
aI595
aI2175
asI1257
(lp1261
I2248
aI428
aI2677
aI688
aI1071
aI2678
aI1206
aI2518
aI2248
aI2671
aI1135
aI2673
aI996
aI2679
aI492
aI2538
aI2249
aI1135
aI2673
asI1258
(lp1262
I505
aI644
aI452
asI1259
(lp1263
I356
aI2342
asI1260
(lp1264
I2250
aI1559
asI1261
(lp1265
I2130
asI1262
(lp1266
I1072
aI110
aI1509
aI564
aI189
aI567
asI1263
(lp1267
I1407
asI1264
(lp1268
I1531
aI248
aI443
asI1265
(lp1269
I2291
aI733
aI377
asI1266
(lp1270
I1984
aI255
aI1529
asI1267
(lp1271
I1824
aI647
aI645
asI1268
(lp1272
I1929
aI2309
aI162
asI1269
(lp1273
I2227
aI737
aI753
aI1880
aI1227
aI1630
aI890
aI1314
asI1270
(lp1274
I2034
aI1622
asI1271
(lp1275
I2367
aI1093
aI1090
aI15
aI599
asI1272
(lp1276
I310
aI1945
aI1950
aI1947
asI1273
(lp1277
I2126
aI2125
aI722
aI2129
aI2034
aI1111
aI2124
aI1119
asI1274
(lp1278
I239
asI1275
(lp1279
I405
aI1468
asI1276
(lp1280
I1022
aI458
aI1022
aI1962
asI1277
(lp1281
I755
asI1278
(lp1282
I2305
aI2268
aI2306
asI1279
(lp1283
I2203
aI2186
aI731
aI901
asI1280
(lp1284
I449
aI2612
asI1281
(lp1285
I1358
aI1746
aI1748
aI977
asI1282
(lp1286
I1483
aI1776
aI1735
aI1283
aI684
aI741
aI1776
aI2324
aI905
asI1283
(lp1287
I1776
aI2324
aI1282
asI1284
(lp1288
I1358
aI1103
aI757
aI2450
aI998
aI902
aI1604
asI1285
(lp1289
I711
aI2182
asI1286
(lp1290
I538
asI1287
(lp1291
I1358
aI59
aI481
aI1164
asI1288
(lp1292
I88
aI1309
asI1289
(lp1293
I1705
aI1622
asI1290
(lp1294
I2258
aI1213
aI212
aI2258
asI1291
(lp1295
I1224
aI1660
aI2154
asI1292
(lp1296
I1358
aI1317
aI689
asI1293
(lp1297
I1013
aI2418
aI65
asI1294
(lp1298
I733
aI352
asI1295
(lp1299
I1171
aI1987
asI1296
(lp1300
I440
aI1910
aI35
aI728
aI1911
aI1912
aI1913
aI1913
aI895
asI1297
(lp1301
I598
aI316
aI766
asI1298
(lp1302
I2703
asI1299
(lp1303
I1810
aI1701
aI598
asI1300
(lp1304
I1542
aI2508
aI1941
aI507
aI1940
aI1933
aI251
aI812
aI877
asI1301
(lp1305
I1542
aI598
aI25
aI2140
aI1316
aI1315
asI1302
(lp1306
I1006
asI1303
(lp1307
I979
aI746
aI95
aI2163
aI1026
asI1304
(lp1308
I505
aI1180
aI937
aI937
asI1305
(lp1309
I1358
aI466
asI1306
(lp1310
I1317
aI364
asI1307
(lp1311
I2536
aI1444
aI804
aI802
aI922
asI1308
(lp1312
I1229
aI1254
aI1627
asI1309
(lp1313
I88
aI1677
aI61
aI2102
aI2103
aI1338
aI1288
aI995
aI1882
aI851
aI88
aI1625
aI1741
aI2015
aI490
aI415
aI2178
asI1310
(lp1314
I2692
asI1311
(lp1315
I2080
aI468
aI1312
aI1313
asI1312
(lp1316
I904
aI1311
aI1313
asI1313
(lp1317
I468
aI573
aI2407
aI1312
aI1311
asI1314
(lp1318
I514
aI1269
aI890
asI1315
(lp1319
I1301
aI17
asI1316
(lp1320
I1679
aI927
aI1301
aI17
asI1317
(lp1321
I689
aI2220
aI1040
aI1719
aI1720
aI1292
aI1739
aI796
aI1306
aI2221
aI1148
asI1318
(lp1322
I12
aI2661
aI2662
asI1319
(lp1323
I2034
aI186
aI186
asI1320
(lp1324
I1050
aI1491
aI1349
aI2684
asI1321
(lp1325
I2501
asI1322
(lp1326
I2265
aI63
asI1323
(lp1327
I1701
asI1324
(lp1328
I2035
aI2265
asI1325
(lp1329
I327
aI1095
aI298
aI2247
aI1000
aI2063
asI1326
(lp1330
I928
aI2063
asI1327
(lp1331
I2161
aI1328
aI495
asI1328
(lp1332
I2160
aI495
aI1327
asI1329
(lp1333
I733
aI78
aI994
asI1330
(lp1334
I1837
aI1204
aI2068
asI1331
(lp1335
I1810
aI310
aI1576
aI1810
asI1332
(lp1336
I436
aI2024
aI621
asI1333
(lp1337
I1973
aI2312
aI2195
aI749
asI1334
(lp1338
I1701
aI1542
aI1950
aI1577
aI1941
asI1335
(lp1339
I1856
aI2087
aI2090
asI1336
(lp1340
I1012
aI2032
aI1797
aI695
aI2033
aI86
aI1452
aI2034
asI1337
(lp1341
I1701
aI2045
aI109
aI563
aI563
asI1338
(lp1342
I1309
aI2385
aI1912
asI1339
(lp1343
I1358
aI154
aI1753
asI1340
(lp1344
I1413
aI1542
aI872
aI1943
asI1341
(lp1345
I1224
aI868
aI2425
asI1342
(lp1346
I1050
aI1050
aI1230
asI1343
(lp1347
I118
aI2316
aI836
aI255
aI2165
aI1645
aI1507
asI1344
(lp1348
I1928
aI2315
aI25
aI724
aI815
asI1345
(lp1349
I202
aI353
aI202
asI1346
(lp1350
I519
aI306
aI109
aI1670
asI1347
(lp1351
I1997
aI281
asI1348
(lp1352
I1810
aI2163
aI218
aI2605
asI1349
(lp1353
I1634
aI39
aI1320
aI2684
asI1350
(lp1354
I1443
asI1351
(lp1355
I604
aI2134
aI1592
aI907
aI1362
aI69
aI1972
aI262
aI2282
aI1535
asI1352
(lp1356
I506
asI1353
(lp1357
I661
aI97
asI1354
(lp1358
I1183
aI371
aI2270
aI400
asI1355
(lp1359
I1171
aI1957
asI1356
(lp1360
I1613
asI1357
(lp1361
I2025
aI2170
asI1358
(lp1362
I797
aI1708
aI1154
aI1149
aI1709
aI1123
aI289
aI244
aI1710
aI1243
aI1711
aI1712
aI929
aI689
aI708
aI1444
aI1713
aI1562
aI1714
aI978
aI764
aI1715
aI90
aI882
aI684
aI1716
aI170
aI501
aI754
aI524
aI744
aI1339
aI1238
aI1717
aI1718
aI1516
aI1646
aI951
aI1480
aI53
aI919
aI1040
aI34
aI72
aI1719
aI970
aI357
aI823
aI1565
aI1720
aI246
aI1483
aI1499
aI341
aI1620
aI1721
aI1292
aI1722
aI333
aI1103
aI30
aI686
aI1550
aI1723
aI1189
aI645
aI876
aI1724
aI1070
aI902
aI1725
aI1726
aI1727
aI1041
aI1728
aI1729
aI1730
aI1731
aI1732
aI173
aI1733
aI1734
aI873
aI1735
aI101
aI154
aI174
aI1736
aI155
aI156
aI1737
aI1209
aI1738
aI1739
aI687
aI1740
aI337
aI1568
aI73
aI985
aI796
aI613
aI757
aI1741
aI626
aI1546
aI364
aI466
aI111
aI1229
aI1742
aI1743
aI1744
aI1745
aI758
aI853
aI346
aI1746
aI1492
aI59
aI228
aI1747
aI1748
aI1281
aI1471
aI1749
aI609
aI489
aI1750
aI1038
aI1599
aI1389
aI616
aI1751
aI1384
aI1287
aI999
aI552
aI326
aI1752
aI1753
aI1754
aI1755
aI1756
aI1305
aI1757
aI819
aI580
aI1758
aI1759
aI1284
aI1604
aI1760
aI1205
aI1761
aI1762
aI1763
aI1764
aI68
aI748
aI1765
aI831
aI957
aI1072
aI1766
aI1145
aI1169
aI1725
aI2597
asI1359
(lp1363
I1914
aI2278
aI1464
aI181
aI2480
asI1360
(lp1364
I1902
aI1960
aI1650
aI541
aI647
aI904
aI1904
aI2491
asI1361
(lp1365
I565
aI1528
asI1362
(lp1366
I1914
aI1351
aI1372
asI1363
(lp1367
I1413
aI507
asI1364
(lp1368
I40
asI1365
(lp1369
I1703
aI1702
aI2509
aI2519
asI1366
(lp1370
I2248
aI368
aI1194
asI1367
(lp1371
I484
aI306
aI124
aI2143
aI1196
aI1656
aI1584
aI980
aI1778
aI2080
asI1368
(lp1372
I702
aI2553
aI1911
asI1369
(lp1373
I1094
aI1653
aI1530
asI1370
(lp1374
I1224
aI1525
aI2274
aI779
aI1919
aI778
aI1975
aI2485
asI1371
(lp1375
I1393
asI1372
(lp1376
I42
aI1362
asI1373
(lp1377
I1003
aI848
aI518
asI1374
(lp1378
I748
asI1375
(lp1379
I2586
asI1376
(lp1380
I1848
aI239
aI2232
asI1377
(lp1381
I1840
aI2068
aI2069
aI2070
aI2388
asI1378
(lp1382
I2058
aI2150
aI1544
asI1379
(lp1383
I2564
aI1380
asI1380
(lp1384
I1050
aI2564
aI1379
asI1381
(lp1385
I798
aI1794
asI1382
(lp1386
I1502
aI281
aI2176
aI2283
aI218
asI1383
(lp1387
I806
aI403
asI1384
(lp1388
I1358
aI1229
asI1385
(lp1389
I1015
aI2335
aI714
asI1386
(lp1390
I727
aI2570
aI2571
aI2570
asI1387
(lp1391
I1190
asI1388
(lp1392
I2197
aI2181
aI257
aI964
aI734
aI736
asI1389
(lp1393
I1358
aI341
aI2597
asI1390
(lp1394
I856
aI2681
asI1391
(lp1395
I1693
asI1392
(lp1396
I710
aI51
aI2212
asI1393
(lp1397
I1371
asI1394
(lp1398
I211
aI88
aI2137
asI1395
(lp1399
I2072
aI679
aI2266
aI2189
aI2267
aI948
asI1396
(lp1400
I2394
aI1399
aI2395
aI2228
aI1421
aI2109
asI1397
(lp1401
I861
asI1398
(lp1402
I565
aI1528
asI1399
(lp1403
I2227
aI2309
aI2394
aI1501
aI1396
asI1400
(lp1404
I886
aI2698
asI1401
(lp1405
I89
aI1153
aI1585
aI258
aI761
asI1402
(lp1406
I1616
aI1163
aI1919
aI1482
aI1972
asI1403
(lp1407
I465
aI1013
aI2317
asI1404
(lp1408
I2375
asI1405
(lp1409
I1894
aI1053
aI229
aI1508
asI1406
(lp1410
I922
aI2387
asI1407
(lp1411
I1263
asI1408
(lp1412
I1829
aI1826
aI370
aI1553
aI1828
asI1409
(lp1413
I360
aI1553
aI1828
aI1826
aI1827
asI1410
(lp1414
I897
aI1121
aI1203
aI1655
asI1411
(lp1415
I2218
asI1412
(lp1416
I1483
aI1735
aI704
aI2450
aI1743
asI1413
(lp1417
I338
aI1340
aI219
aI776
aI1931
aI1932
aI1363
aI402
aI1933
aI1934
aI872
aI1935
aI253
aI251
aI812
aI1936
aI877
aI1542
aI507
aI251
asI1414
(lp1418
I1415
aI370
aI371
aI2270
asI1415
(lp1419
I392
aI2269
aI371
aI1414
aI370
aI371
asI1416
(lp1420
I1921
aI1922
aI149
aI61
aI305
aI1118
aI1008
aI1923
aI718
aI30
aI1924
aI6
aI1925
aI572
aI1926
aI1468
aI1602
aI74
asI1417
(lp1421
I1703
aI963
aI2350
aI1529
aI1452
aI2260
aI529
asI1418
(lp1422
I78
asI1419
(lp1423
I2259
aI2260
aI529
asI1420
(lp1424
I2394
aI2396
aI1421
asI1421
(lp1425
I1975
aI2394
aI1420
aI1085
aI2110
aI1396
aI2109
asI1422
(lp1426
I837
asI1423
(lp1427
I1692
aI591
asI1424
(lp1428
I1813
aI1621
asI1425
(lp1429
I1015
aI1618
asI1426
(lp1430
I760
aI480
aI1751
asI1427
(lp1431
I1742
aI2446
aI860
aI1725
asI1428
(lp1432
I2376
aI1429
aI2520
aI2336
aI2524
aI1429
aI1534
aI1202
asI1429
(lp1433
I1428
aI1428
aI2520
aI1534
asI1430
(lp1434
I1718
aI632
asI1431
(lp1435
I998
aI976
aI998
asI1432
(lp1436
I1950
aI1054
aI2663
aI1049
asI1433
(lp1437
I2359
aI1035
aI931
asI1434
(lp1438
I1986
aI445
asI1435
(lp1439
I1927
aI2059
aI2071
asI1436
(lp1440
I2259
asI1437
(lp1441
I1688
asI1438
(lp1442
I2664
asI1439
(lp1443
I2676
aI200
asI1440
(lp1444
I1701
aI869
asI1441
(lp1445
I454
aI241
aI540
aI720
aI1060
aI50
aI2271
aI648
aI2272
aI750
aI1619
aI1707
aI1700
aI2273
aI2274
aI1954
aI590
aI1957
aI1958
aI265
aI1128
aI2275
aI371
asI1442
(lp1446
I432
aI2462
asI1443
(lp1447
I1240
aI963
aI2645
aI1094
aI1350
aI2399
aI2240
aI1094
aI761
asI1444
(lp1448
I1358
aI2323
aI1307
aI154
asI1445
(lp1449
I681
aI681
aI1446
asI1446
(lp1450
I681
aI1445
aI681
asI1447
(lp1451
I1928
asI1448
(lp1452
I2034
aI2045
aI505
aI102
aI1251
asI1449
(lp1453
I2681
asI1450
(lp1454
I321
aI1083
aI1225
aI321
asI1451
(lp1455
I194
aI194
aI2564
asI1452
(lp1456
I1336
aI1015
aI1417
asI1453
(lp1457
I1701
aI1986
asI1454
(lp1458
I2
asI1455
(lp1459
I441
aI1537
asI1456
(lp1460
I1457
asI1457
(lp1461
I649
aI1019
aI1456
asI1458
(lp1462
I982
asI1459
(lp1463
I2218
aI2080
asI1460
(lp1464
I1185
aI2358
aI2349
asI1461
(lp1465
I2248
aI1634
asI1462
(lp1466
I1119
aI1611
aI1663
aI1235
asI1463
(lp1467
I490
aI2131
aI276
aI2132
aI1695
aI2133
aI555
asI1464
(lp1468
I1013
aI1914
aI712
aI1482
aI850
aI262
aI1683
aI181
aI1359
asI1465
(lp1469
I1799
aI1488
asI1466
(lp1470
I1041
asI1467
(lp1471
I52
aI2172
aI52
asI1468
(lp1472
I1416
aI1275
aI146
asI1469
(lp1473
I756
aI1692
aI2349
aI1498
aI2346
aI2358
aI2590
aI1498
asI1470
(lp1474
I1824
aI801
aI1953
aI1555
aI2553
aI1070
asI1471
(lp1475
I1358
aI1646
asI1472
(lp1476
I756
aI2187
aI240
aI512
aI1692
asI1473
(lp1477
I598
aI165
aI2707
aI598
aI2706
asI1474
(lp1478
I2261
aI2335
aI1908
aI593
asI1475
(lp1479
I1017
aI2469
aI2470
aI614
aI888
asI1476
(lp1480
I404
aI1170
asI1477
(lp1481
I1542
aI1098
aI2066
aI2067
asI1478
(lp1482
I1072
aI1902
aI694
asI1479
(lp1483
I1701
aI873
aI1894
aI261
asI1480
(lp1484
I1358
aI1103
asI1481
(lp1485
I1042
aI1015
aI2335
aI2332
aI1669
asI1482
(lp1486
I1973
aI1464
aI955
aI1402
aI2132
asI1483
(lp1487
I1358
aI1072
aI306
aI2208
aI969
aI742
aI562
aI754
aI389
aI1620
aI1726
aI1735
aI905
aI704
aI1743
aI1282
aI359
aI1249
aI1077
aI1412
aI2113
aI2083
aI2113
asI1484
(lp1488
I2383
aI2498
aI2520
aI299
asI1485
(lp1489
I1914
asI1486
(lp1490
I650
aI1035
aI1745
asI1487
(lp1491
I1849
aI2017
aI2137
aI1501
asI1488
(lp1492
I411
aI2601
aI1465
aI792
asI1489
(lp1493
I1004
asI1490
(lp1494
I306
aI2327
aI2085
asI1491
(lp1495
I1320
asI1492
(lp1496
I1358
aI1765
asI1493
(lp1497
I429
asI1494
(lp1498
I436
aI88
aI897
asI1495
(lp1499
I645
aI437
aI93
asI1496
(lp1500
I974
asI1497
(lp1501
I2034
aI549
asI1498
(lp1502
I2025
aI2349
aI1469
aI1469
aI2590
asI1499
(lp1503
I1358
aI1776
aI1214
aI337
aI337
asI1500
(lp1504
I1538
aI1131
aI1133
aI2185
asI1501
(lp1505
I1399
aI1074
aI2395
aI1487
aI1676
aI2228
aI116
asI1502
(lp1506
I1382
aI1200
aI2163
aI1503
asI1503
(lp1507
I979
aI2241
aI2243
aI2243
aI1502
asI1504
(lp1508
I2209
aI1647
asI1505
(lp1509
I1624
aI1072
aI36
aI330
aI1146
aI773
aI2086
aI530
aI1699
aI1801
aI1788
aI1552
aI2107
asI1506
(lp1510
I1146
aI1229
asI1507
(lp1511
I118
aI446
aI989
aI1343
aI1645
aI2436
asI1508
(lp1512
I2117
aI1894
aI1405
asI1509
(lp1513
I1262
aI189
aI189
asI1510
(lp1514
I1202
aI2387
aI1046
aI1162
aI1046
asI1511
(lp1515
I1519
asI1512
(lp1516
I2023
aI2145
aI945
aI342
asI1513
(lp1517
I760
aI1830
aI567
asI1514
(lp1518
I1692
asI1515
(lp1519
I2182
aI2234
asI1516
(lp1520
I1358
aI2612
asI1517
(lp1521
I1042
aI74
asI1518
(lp1522
I1063
aI577
aI1129
asI1519
(lp1523
I1015
aI2335
aI2108
aI147
aI1511
aI1534
aI2640
asI1520
(lp1524
I1103
aI1765
aI83
aI1750
asI1521
(lp1525
I1013
aI98
asI1522
(lp1526
I39
aI1697
aI2680
asI1523
(lp1527
I548
aI2449
asI1524
(lp1528
I1693
aI434
aI2499
asI1525
(lp1529
I1914
aI1973
aI1224
aI1370
asI1526
(lp1530
I1879
aI1977
aI2099
aI1981
aI1224
aI868
aI2425
asI1527
(lp1531
I88
aI415
aI1668
aI2450
aI60
aI331
aI860
aI2274
asI1528
(lp1532
I565
aI1398
aI513
aI1361
aI427
asI1529
(lp1533
I1115
aI1178
aI1984
aI2350
aI1908
aI1266
aI1417
asI1530
(lp1534
I2464
aI89
aI2240
aI1369
aI43
asI1531
(lp1535
I1889
aI1264
aI443
aI248
asI1532
(lp1536
I39
aI2648
asI1533
(lp1537
I2671
aI492
aI1109
aI726
asI1534
(lp1538
I1428
aI1429
aI911
aI1082
aI1519
asI1535
(lp1539
I95
aI2155
aI2293
aI280
aI1916
aI1351
asI1536
(lp1540
I186
aI2580
aI1228
aI2702
asI1537
(lp1541
I441
aI1455
aI119
asI1538
(lp1542
I1500
aI1842
aI747
aI2185
aI643
aI118
aI1131
aI1133
aI2185
asI1539
(lp1543
I1914
asI1540
(lp1544
I1628
aI525
aI2054
asI1541
(lp1545
I1005
asI1542
(lp1546
I918
aI990
aI338
aI1939
aI1340
aI219
aI776
aI1940
aI1931
aI1334
aI1941
aI402
aI1607
aI1413
aI872
aI1942
aI1177
aI1176
aI1300
aI1935
aI1477
aI1943
aI297
aI251
aI812
aI1936
aI1301
aI877
aI1577
aI1607
aI216
asI1543
(lp1547
I2029
aI1881
aI735
aI739
asI1544
(lp1548
I1378
asI1545
(lp1549
I2248
aI368
asI1546
(lp1550
I1358
aI687
aI2169
aI1804
aI341
asI1547
(lp1551
I2169
asI1548
(lp1552
I171
aI790
asI1549
(lp1553
I119
aI1901
aI2286
asI1550
(lp1554
I1358
aI2083
aI748
asI1551
(lp1555
I306
aI126
asI1552
(lp1556
I36
aI1505
aI1089
aI2591
aI1778
asI1553
(lp1557
I1827
aI1409
aI371
aI1408
asI1554
(lp1558
I1657
aI2687
aI2686
aI1657
aI2688
asI1555
(lp1559
I1470
aI458
aI2363
aI1953
asI1556
(lp1560
I888
asI1557
(lp1561
I957
aI2168
aI650
aI2083
asI1558
(lp1562
I2338
aI1014
aI2339
aI792
aI1191
aI879
aI1986
aI2340
asI1559
(lp1563
I283
aI1260
asI1560
(lp1564
I1623
aI505
aI18
asI1561
(lp1565
I1623
aI102
asI1562
(lp1566
I1358
aI1765
asI1563
(lp1567
I2633
asI1564
(lp1568
I1772
aI1786
asI1565
(lp1569
I1358
aI2365
asI1566
(lp1570
I1895
aI2071
aI768
aI1199
aI1732
asI1567
(lp1571
I1874
aI722
aI2500
aI722
aI1654
asI1568
(lp1572
I1358
aI748
aI154
aI1729
asI1569
(lp1573
I1966
aI1050
aI450
asI1570
(lp1574
I743
aI696
aI571
asI1571
(lp1575
I1045
asI1572
(lp1576
I236
aI306
aI836
aI1776
asI1573
(lp1577
I598
aI2698
asI1574
(lp1578
I1986
aI519
aI1066
asI1575
(lp1579
I473
asI1576
(lp1580
I1810
aI1331
asI1577
(lp1581
I1099
aI1334
aI1542
aI1055
aI1054
aI411
aI1221
asI1578
(lp1582
I2497
asI1579
(lp1583
I47
aI559
aI1183
aI1182
aI2029
asI1580
(lp1584
I2199
aI544
aI2200
aI2199
aI95
aI1892
aI456
asI1581
(lp1585
I1810
aI310
aI1819
asI1582
(lp1586
I44
asI1583
(lp1587
I1013
aI2025
aI1224
aI973
aI1995
aI366
aI1127
aI376
aI1120
aI553
asI1584
(lp1588
I306
aI1367
aI1798
asI1585
(lp1589
I89
aI1401
aI1653
asI1586
(lp1590
I2168
aI687
aI173
asI1587
(lp1591
I1224
aI2154
asI1588
(lp1592
I2333
aI1047
aI1047
aI2055
asI1589
(lp1593
I2596
aI101
aI1745
asI1590
(lp1594
I794
aI863
asI1591
(lp1595
I2541
asI1592
(lp1596
I1914
aI2071
aI1351
aI779
aI2485
asI1593
(lp1597
I213
aI537
aI144
aI1165
aI145
aI1165
asI1594
(lp1598
I31
asI1595
(lp1599
I2246
asI1596
(lp1600
I2476
asI1597
(lp1601
I432
aI320
asI1598
(lp1602
I2367
aI1093
aI640
aI1147
aI1090
asI1599
(lp1603
I1358
aI1199
aI2614
aI2460
aI2441
aI110
asI1600
(lp1604
I1059
asI1601
(lp1605
I1750
asI1602
(lp1606
I1204
aI1416
aI2072
aI2073
aI2074
aI6
aI100
aI2054
aI95
aI315
asI1603
(lp1607
I968
asI1604
(lp1608
I1358
aI1284
aI902
aI46
aI902
asI1605
(lp1609
I1950
aI1054
aI2663
asI1606
(lp1610
I364
aI764
aI819
asI1607
(lp1611
I1542
aI1221
aI1099
aI1542
asI1608
(lp1612
I2124
aI2126
aI2489
aI546
asI1609
(lp1613
I1790
aI1791
aI1912
asI1610
(lp1614
I565
aI687
aI244
aI2556
aI312
aI2557
aI565
aI2558
asI1611
(lp1615
I2124
aI1462
aI2124
asI1612
(lp1616
I764
asI1613
(lp1617
I1356
asI1614
(lp1618
I210
aI2034
aI1671
asI1615
(lp1619
I1665
asI1616
(lp1620
I2050
aI1402
aI412
aI56
aI539
aI581
aI447
aI1849
aI118
asI1617
(lp1621
I748
asI1618
(lp1622
I429
aI1015
aI1143
aI1789
aI1425
asI1619
(lp1623
I1441
aI392
aI2269
asI1620
(lp1624
I1358
aI1483
aI2450
aI742
aI905
aI359
asI1621
(lp1625
I1424
aI1192
asI1622
(lp1626
I1289
aI124
aI1270
aI2425
asI1623
(lp1627
I608
aI1767
aI1768
aI1769
aI542
aI1770
aI112
aI660
aI1771
aI980
aI314
aI556
aI459
aI1772
aI139
aI1773
aI1561
aI1774
aI126
aI102
aI1775
aI1776
aI350
aI1777
aI887
aI1251
aI1778
aI1779
aI1780
aI581
aI1781
aI452
aI153
aI384
aI133
aI1782
aI1783
aI1144
aI719
aI1560
aI910
aI1784
asI1624
(lp1628
I1196
aI1785
aI1505
aI317
aI1786
aI1705
aI1787
aI1777
aI887
aI589
aI1788
aI1778
aI1779
aI1780
aI384
aI109
aI409
asI1625
(lp1629
I1013
aI1309
aI1729
asI1626
(lp1630
I210
asI1627
(lp1631
I1740
aI1229
aI1308
aI59
asI1628
(lp1632
I2053
aI597
aI1540
aI1635
aI1042
aI2054
aI2055
aI142
aI2056
aI65
aI2057
aI1139
aI2021
aI1117
aI2172
aI525
aI2054
aI95
asI1629
(lp1633
I1711
aI1659
aI5
asI1630
(lp1634
I2227
aI737
aI1269
asI1631
(lp1635
I2196
aI736
asI1632
(lp1636
I16
aI364
aI1756
asI1633
(lp1637
I1096
asI1634
(lp1638
I82
aI1349
aI39
aI1050
aI2393
aI1461
asI1635
(lp1639
I1628
aI763
aI1158
aI2383
asI1636
(lp1640
I1701
aI2139
aI2141
aI24
aI598
asI1637
(lp1641
I1973
aI702
asI1638
(lp1642
I831
asI1639
(lp1643
I1688
aI2679
aI177
asI1640
(lp1644
I306
aI36
aI350
asI1641
(lp1645
I833
aI2495
aI637
asI1642
(lp1646
I439
aI2657
aI2658
asI1643
(lp1647
I348
asI1644
(lp1648
I1013
aI415
asI1645
(lp1649
I1343
aI989
aI795
aI1507
asI1646
(lp1650
I1358
aI1471
asI1647
(lp1651
I2160
aI2209
aI108
aI1504
asI1648
(lp1652
I1210
asI1649
(lp1653
I94
asI1650
(lp1654
I1360
aI107
aI1113
aI971
asI1651
(lp1655
I2045
aI306
aI1248
asI1652
(lp1656
I604
aI498
aI1972
aI1848
aI725
asI1653
(lp1657
I89
aI1369
aI43
aI1094
aI1585
asI1654
(lp1658
I2034
aI1952
aI1567
aI835
asI1655
(lp1659
I1131
aI1410
aI149
aI1842
aI1121
aI1131
aI2295
aI2136
aI2384
aI1894
aI11
aI1839
aI2282
asI1656
(lp1660
I306
aI1367
aI1798
asI1657
(lp1661
I2686
aI1554
aI1554
aI2688
asI1658
(lp1662
I88
aI2018
asI1659
(lp1663
I1629
aI5
aI5
asI1660
(lp1664
I1224
aI1291
aI2154
asI1661
(lp1665
I1013
aI109
aI454
aI1851
asI1662
(lp1666
I1666
aI2381
aI2398
aI2381
aI2398
aI48
asI1663
(lp1667
I1119
aI1462
aI2577
asI1664
(lp1668
I455
aI785
aI2147
aI607
asI1665
(lp1669
I962
aI1701
aI2034
aI1615
asI1666
(lp1670
I49
aI606
aI1662
aI2381
aI48
aI2
asI1667
(lp1671
I438
aI162
aI651
asI1668
(lp1672
I355
aI1527
asI1669
(lp1673
I429
aI2332
aI1892
aI2332
aI1892
aI1481
asI1670
(lp1674
I519
aI133
aI308
aI303
aI1346
asI1671
(lp1675
I210
aI1614
aI1929
aI1968
aI2136
aI2137
asI1672
(lp1676
I186
asI1673
(lp1677
I2660
asI1674
(lp1678
I1914
aI2608
aI891
asI1675
(lp1679
I1013
aI1914
aI1074
aI1676
asI1676
(lp1680
I1914
aI1975
aI1501
aI1675
aI1074
asI1677
(lp1681
I88
aI1309
aI415
aI191
aI1908
asI1678
(lp1682
I833
aI1746
aI833
asI1679
(lp1683
I1247
aI2140
aI1316
asI1680
(lp1684
I2056
aI2576
asI1681
(lp1685
I1012
aI2318
aI459
aI2319
aI695
aI407
aI2320
aI948
aI409
asI1682
(lp1686
I733
aI1012
aI2321
aI2189
aI2291
aI2319
aI695
aI407
aI2320
aI948
asI1683
(lp1687
I1973
aI1464
aI2132
aI181
asI1684
(lp1688
I2486
aI2513
aI2486
asI1685
(lp1689
I957
aI650
aI2083
asI1686
(lp1690
I2647
asI1687
(lp1691
I28
aI1003
aI246
aI1721
asI1688
(lp1692
I1437
aI1639
aI2671
asI1689
(lp1693
I155
aI156
asI1690
(lp1694
I118
aI2112
asI1691
(lp1695
I700
asI1692
(lp1696
I756
aI756
aI2345
aI2186
aI2302
aI2346
aI2187
aI1423
aI2347
aI2348
aI503
aI574
aI1469
aI1514
aI1472
aI240
aI2349
aI172
aI512
aI291
asI1693
(lp1697
I1391
aI965
aI1524
aI2408
aI434
asI1694
(lp1698
I333
asI1695
(lp1699
I1463
aI276
aI2133
aI2133
asI1696
(lp1700
I1713
asI1697
(lp1701
I1986
aI2253
aI1522
aI1119
asI1698
(lp1702
I2160
aI537
asI1699
(lp1703
I484
aI1065
aI1505
asI1700
(lp1704
I1441
asI1701
(lp1705
I1852
aI1853
aI1854
aI157
aI1241
aI664
aI261
aI1855
aI547
aI1665
aI467
aI532
aI1856
aI343
aI1075
aI1857
aI1858
aI1052
aI215
aI1212
aI318
aI335
aI205
aI1859
aI874
aI1334
aI1299
aI1860
aI416
aI1861
aI767
aI235
aI1453
aI729
aI1862
aI1023
aI1799
aI1440
aI869
aI1479
aI1337
aI633
aI143
aI232
aI231
aI216
aI1863
aI1864
aI1820
aI1865
aI1866
aI13
aI201
aI1846
aI1867
aI563
aI784
aI1868
aI158
aI1636
aI24
aI1869
aI699
aI1870
aI1871
aI1872
aI1873
aI1874
aI1875
aI226
aI1323
aI1876
aI1100
aI1877
asI1702
(lp1706
I1703
aI1365
aI463
aI1970
aI1703
aI1971
aI1966
aI1234
aI22
aI1240
aI2238
asI1703
(lp1707
I1365
aI1967
aI789
aI759
aI463
aI1906
aI1968
aI1417
aI1969
aI1970
aI1702
aI1971
aI1966
aI1234
aI22
aI1702
aI1966
aI2238
aI963
asI1704
(lp1708
I1986
aI1912
aI383
aI2077
asI1705
(lp1709
I1624
aI487
aI306
aI1289
aI2081
aI1193
aI2322
asI1706
(lp1710
I558
aI2585
asI1707
(lp1711
I1441
asI1708
(lp1712
I1358
aI467
aI1857
aI2313
aI873
aI2314
asI1709
(lp1713
I1358
aI1986
aI2365
aI1738
aI1739
asI1710
(lp1714
I1358
aI687
aI372
aI2444
aI480
asI1711
(lp1715
I1358
aI1765
aI1629
aI1730
aI1731
asI1712
(lp1716
I1358
aI2446
aI1725
asI1713
(lp1717
I1358
aI1898
aI88
aI1696
asI1714
(lp1718
I1358
aI1169
aI1154
aI1727
asI1715
(lp1719
I1358
aI1154
aI58
asI1716
(lp1720
I1358
aI1214
aI2446
aI1199
asI1717
(lp1721
I1358
aI2560
aI1731
aI1114
asI1718
(lp1722
I1358
aI1103
aI1430
aI2685
asI1719
(lp1723
I1358
aI1317
aI1169
aI1765
asI1720
(lp1724
I1358
aI1317
aI1169
aI1765
asI1721
(lp1725
I1358
aI689
aI687
aI1687
aI228
aI105
aI2476
aI1761
asI1722
(lp1726
I1358
aI289
aI312
asI1723
(lp1727
I1358
aI565
aI73
aI768
aI1724
asI1724
(lp1728
I1358
aI2216
aI2215
aI768
aI1723
asI1725
(lp1729
I1358
aI687
aI2413
aI1712
aI557
aI2596
aI1070
aI1734
aI1358
aI1740
aI1745
aI59
aI2334
aI1427
aI628
aI1072
aI2597
aI1734
asI1726
(lp1730
I1358
aI2168
aI1483
asI1727
(lp1731
I1358
aI188
aI1714
asI1728
(lp1732
I1358
aI2257
aI2555
aI961
aI2599
asI1729
(lp1733
I1358
aI1013
aI657
aI1625
aI1568
asI1730
(lp1734
I1358
aI1711
asI1731
(lp1735
I1358
aI1169
aI1711
aI1717
aI1755
asI1732
(lp1736
I1358
aI88
aI1224
aI748
aI1566
asI1733
(lp1737
I1358
aI1072
aI831
asI1734
(lp1738
I1358
aI1169
aI1725
aI2597
aI1725
asI1735
(lp1739
I1358
aI1483
aI969
aI562
aI1776
aI2324
aI1282
aI1412
asI1736
(lp1740
I1358
aI817
aI155
aI1763
asI1737
(lp1741
I1358
aI1169
aI2616
aI1209
aI1888
aI64
asI1738
(lp1742
I1358
aI2365
aI1709
aI2366
aI466
asI1739
(lp1743
I1358
aI1317
aI1709
aI1886
aI53
aI1750
aI616
aI2221
aI1766
asI1740
(lp1744
I1358
aI1072
aI657
aI312
aI915
aI2389
aI1627
aI2390
aI2391
aI2392
aI1804
aI268
aI1035
aI1725
asI1741
(lp1745
I1358
aI88
aI1309
aI2593
asI1742
(lp1746
I1358
aI174
aI2443
aI2307
aI2444
aI526
aI533
aI1007
aI1749
aI2445
aI403
aI1427
aI1758
aI580
aI1154
asI1743
(lp1747
I1358
aI1483
aI704
aI2450
aI969
aI742
aI389
aI1412
aI2113
asI1744
(lp1748
I1358
aI1765
asI1745
(lp1749
I1358
aI73
aI1214
aI1725
aI2596
aI1486
aI1589
asI1746
(lp1750
I1358
aI1281
aI1678
asI1747
(lp1751
I1358
aI1148
asI1748
(lp1752
I1358
aI1103
aI1281
asI1749
(lp1753
I1358
aI1229
aI1742
aI2446
asI1750
(lp1754
I1358
aI1739
aI1765
aI1766
aI1520
aI1601
asI1751
(lp1755
I1358
aI73
aI2596
aI1426
asI1752
(lp1756
I1358
aI154
aI1754
asI1753
(lp1757
I1358
aI154
aI1339
asI1754
(lp1758
I1358
aI154
aI326
aI1752
asI1755
(lp1759
I1358
aI1765
aI1731
asI1756
(lp1760
I1358
aI650
aI364
aI1632
aI2642
aI732
asI1757
(lp1761
I1358
aI957
aI2451
asI1758
(lp1762
I1358
aI1742
aI580
aI2466
aI860
aI464
asI1759
(lp1763
I1358
aI569
aI493
aI239
asI1760
(lp1764
I1358
aI1103
asI1761
(lp1765
I1358
aI223
aI1205
aI2175
aI4
aI1256
aI1721
asI1762
(lp1766
I1358
aI111
aI758
aI853
asI1763
(lp1767
I1358
aI817
aI1736
aI155
aI156
asI1764
(lp1768
I1358
aI628
asI1765
(lp1769
I1358
aI1711
aI1562
aI501
aI1040
aI1719
aI823
aI1720
aI1520
aI1744
aI1492
aI2492
aI825
aI1750
aI1755
aI580
aI290
asI1766
(lp1770
I1358
aI1739
aI1750
asI1767
(lp1771
I1623
aI1783
asI1768
(lp1772
I1623
aI1837
aI2325
asI1769
(lp1773
I1623
aI109
aI544
aI399
asI1770
(lp1774
I1623
aI306
aI2080
aI1245
asI1771
(lp1775
I1623
aI306
aI1778
asI1772
(lp1776
I1623
aI2045
aI306
aI109
aI1564
aI487
aI1782
aI426
asI1773
(lp1777
I1623
aI1045
aI1789
aI1780
aI487
aI638
aI1780
asI1774
(lp1778
I1623
asI1775
(lp1779
I1623
aI306
aI103
aI484
aI350
asI1776
(lp1780
I1623
aI2045
aI138
aI1572
aI1499
aI2078
aI2324
aI337
aI960
aI1282
aI1735
aI1283
aI1282
asI1777
(lp1781
I1623
aI1624
aI133
aI426
aI2143
asI1778
(lp1782
I1623
aI1624
aI1367
aI350
aI2327
aI1771
aI1552
asI1779
(lp1783
I1623
aI1624
aI505
aI306
aI109
aI2318
asI1780
(lp1784
I1623
aI1624
aI139
aI1773
aI1773
asI1781
(lp1785
I1623
aI306
aI36
aI1998
aI2107
asI1782
(lp1786
I1623
aI306
aI1798
aI487
aI426
aI350
aI2326
aI1772
asI1783
(lp1787
I1623
aI1767
asI1784
(lp1788
I1623
aI1072
aI2045
aI133
aI2096
asI1785
(lp1789
I1624
aI109
aI963
aI808
aI317
asI1786
(lp1790
I1624
aI18
aI1564
asI1787
(lp1791
I1624
aI1810
aI2045
aI306
aI109
aI2143
asI1788
(lp1792
I1624
aI1505
aI1015
asI1789
(lp1793
I1773
aI109
aI426
aI1015
aI1618
asI1790
(lp1794
I1609
aI103
aI695
asI1791
(lp1795
I1609
aI2045
aI191
aI1197
asI1792
(lp1796
I581
aI2485
asI1793
(lp1797
I798
asI1794
(lp1798
I798
aI1381
aI1796
aI1795
aI1795
asI1795
(lp1799
I798
aI1794
aI1796
aI2299
aI828
aI1794
aI2464
asI1796
(lp1800
I1794
aI2297
aI1795
asI1797
(lp1801
I1072
aI1336
aI306
aI1012
aI2088
asI1798
(lp1802
I1072
aI487
aI306
aI1782
aI1656
aI958
aI1584
aI329
asI1799
(lp1803
I1072
aI1701
aI306
aI1465
asI1800
(lp1804
I1072
aI852
aI476
asI1801
(lp1805
I1072
aI1505
aI2451
aI1035
aI2203
asI1802
(lp1806
I1072
aI2079
aI306
asI1803
(lp1807
I1072
aI77
aI354
aI659
asI1804
(lp1808
I1072
aI306
aI1740
aI1546
aI2451
asI1805
(lp1809
I1072
aI306
aI109
aI556
aI426
asI1806
(lp1810
I962
aI453
aI1809
asI1807
(lp1811
I962
aI2034
aI429
aI482
aI180
asI1808
(lp1812
I962
aI1810
aI579
asI1809
(lp1813
I962
aI1810
aI1806
asI1810
(lp1814
I962
aI716
aI1062
aI1811
aI1812
aI1576
aI1004
aI1813
aI1814
aI1815
aI1816
aI1107
aI511
aI1299
aI1808
aI1817
aI1121
aI224
aI1818
aI1819
aI1581
aI230
aI1348
aI1787
aI795
aI1820
aI835
aI1809
aI576
aI1821
aI13
aI1095
aI549
aI481
aI568
aI1331
aI27
aI1822
aI790
aI1823
aI719
aI351
aI549
aI1331
aI482
aI1869
asI1811
(lp1815
I1810
aI1822
asI1812
(lp1816
I1810
aI1986
aI2034
aI482
aI2550
asI1813
(lp1817
I1810
aI1424
asI1814
(lp1818
I1810
aI482
asI1815
(lp1819
I1810
aI310
aI1950
asI1816
(lp1820
I1810
aI829
asI1817
(lp1821
I1810
aI733
asI1818
(lp1822
I1810
aI733
aI2305
aI2306
asI1819
(lp1823
I1810
aI1948
aI1581
asI1820
(lp1824
I1810
aI1701
aI1873
asI1821
(lp1825
I1810
aI603
aI598
aI716
aI316
asI1822
(lp1826
I1810
aI1811
asI1823
(lp1827
I1810
aI598
aI1126
asI1824
(lp1828
I1825
aI1267
aI360
aI645
aI448
aI1470
aI1826
aI1183
asI1825
(lp1829
I1824
aI472
aI392
aI1183
asI1826
(lp1830
I1824
aI1827
aI1409
aI1408
aI1829
aI645
aI448
aI264
asI1827
(lp1831
I1553
aI1828
aI1826
aI1409
asI1828
(lp1832
I1827
aI1409
aI238
aI1408
asI1829
(lp1833
I1408
aI1902
aI1826
aI940
aI1070
asI1830
(lp1834
I889
aI2045
aI1067
aI1513
asI1831
(lp1835
I889
aI824
asI1832
(lp1836
I889
asI1833
(lp1837
I797
aI1834
aI1035
asI1834
(lp1838
I800
aI1833
aI449
aI372
aI2359
asI1835
(lp1839
I898
aI2157
aI2160
asI1836
(lp1840
I898
aI92
asI1837
(lp1841
I183
aI1330
aI1768
aI997
asI1838
(lp1842
I1204
aI95
aI2182
aI2219
asI1839
(lp1843
I1204
aI979
aI1655
aI11
aI2424
aI2453
asI1840
(lp1844
I1013
aI1377
aI2071
asI1841
(lp1845
I1013
aI734
aI736
aI2056
aI408
asI1842
(lp1846
I1013
aI1538
aI1203
aI1655
aI2405
aI2281
aI1979
aI120
aI816
aI1980
asI1843
(lp1847
I1013
aI415
asI1844
(lp1848
I1013
aI868
aI2276
asI1845
(lp1849
I1013
aI894
asI1846
(lp1850
I1013
aI1701
aI2117
aI1867
aI2357
aI1867
asI1847
(lp1851
I1013
aI88
aI415
asI1848
(lp1852
I1013
aI1652
aI325
aI1909
aI1224
aI2419
aI1376
asI1849
(lp1853
I1013
aI1914
aI1616
aI1487
aI447
aI412
aI56
asI1850
(lp1854
I1013
aI415
aI666
aI32
asI1851
(lp1855
I1013
aI693
aI2485
aI1224
aI118
aI1661
asI1852
(lp1856
I1701
aI2045
asI1853
(lp1857
I1701
asI1854
(lp1858
I1701
asI1855
(lp1859
I1701
aI1171
asI1856
(lp1860
I1701
aI2045
aI306
aI2096
aI1335
asI1857
(lp1861
I1701
aI304
aI1708
asI1858
(lp1862
I1701
aI899
asI1859
(lp1863
I1701
aI1986
asI1860
(lp1864
I1701
asI1861
(lp1865
I1701
asI1862
(lp1866
I1701
aI926
aI0
aI2582
asI1863
(lp1867
I1701
aI532
asI1864
(lp1868
I1701
aI598
aI869
aI869
aI232
asI1865
(lp1869
I1701
aI311
aI1147
asI1866
(lp1870
I1701
aI633
asI1867
(lp1871
I1701
aI2117
aI1846
aI1846
asI1868
(lp1872
I1701
aI231
aI766
aI316
asI1869
(lp1873
I1701
aI199
aI205
aI277
aI2309
aI1097
aI203
aI465
aI420
aI1810
asI1870
(lp1874
I1701
aI1986
aI598
aI157
asI1871
(lp1875
I1701
aI102
aI417
aI228
asI1872
(lp1876
I1701
asI1873
(lp1877
I1701
aI1986
aI935
aI603
aI1820
asI1874
(lp1878
I1701
aI1106
aI722
aI2500
aI2501
aI1567
asI1875
(lp1879
I1701
aI1986
aI598
asI1876
(lp1880
I1701
aI1986
asI1877
(lp1881
I1701
aI2573
asI1878
(lp1882
I661
aI2256
aI102
asI1879
(lp1883
I661
aI1526
aI490
aI578
asI1880
(lp1884
I661
aI753
aI1269
aI479
asI1881
(lp1885
I661
aI1958
aI735
aI739
aI1543
asI1882
(lp1886
I661
aI88
aI1309
aI514
aI516
asI1883
(lp1887
I661
asI1884
(lp1888
I661
aI1958
aI854
aI113
aI249
aI1885
asI1885
(lp1889
I661
aI1884
aI2644
asI1886
(lp1890
I1103
aI1739
asI1887
(lp1891
I1103
aI1888
aI1888
asI1888
(lp1892
I1103
aI1887
aI1887
aI1737
asI1889
(lp1893
I1531
aI1890
aI1891
aI1892
aI1893
aI2034
aI429
aI2130
aI2039
asI1890
(lp1894
I1889
aI2130
asI1891
(lp1895
I1889
aI2034
aI2130
asI1892
(lp1896
I1889
aI1669
aI1580
aI1669
asI1893
(lp1897
I1889
aI920
asI1894
(lp1898
I1215
aI2034
aI2117
aI1508
aI1149
aI261
aI770
aI536
aI1479
aI229
aI1405
aI2118
aI1049
aI1655
asI1895
(lp1899
I1566
aI645
asI1896
(lp1900
I709
aI1897
aI793
aI541
asI1897
(lp1901
I1896
aI1903
asI1898
(lp1902
I379
aI755
aI1713
aI645
asI1899
(lp1903
I645
aI1902
aI2491
aI388
aI2510
asI1900
(lp1904
I645
aI2608
asI1901
(lp1905
I645
aI1954
aI119
aI1549
aI2284
aI2286
asI1902
(lp1906
I1899
aI1829
aI793
aI1478
aI448
aI1360
aI264
aI844
aI1903
aI1904
asI1903
(lp1907
I1902
aI2269
aI840
aI1960
aI709
aI1897
aI793
aI2592
asI1904
(lp1908
I1902
aI1960
aI1360
asI1905
(lp1909
I210
aI1914
asI1906
(lp1910
I210
aI1964
aI1703
aI2059
aI1907
asI1907
(lp1911
I210
aI897
aI146
aI566
aI673
aI674
aI717
aI1906
asI1908
(lp1912
I211
aI88
aI415
aI1178
aI1677
aI1474
aI1529
asI1909
(lp1913
I211
aI1848
aI1131
aI2305
aI1171
aI239
asI1910
(lp1914
I1296
aI121
asI1911
(lp1915
I1296
aI945
aI2553
aI1368
asI1912
(lp1916
I1296
aI2404
aI1704
aI2102
aI2103
aI1338
aI995
aI1609
aI1174
aI435
asI1913
(lp1917
I1296
aI440
aI35
aI1296
aI895
asI1914
(lp1918
I604
aI1485
aI1592
aI921
aI1905
aI1525
aI1674
aI955
aI830
aI1362
aI1915
aI1539
aI596
aI41
aI1916
aI69
aI1917
aI1918
aI506
aI1079
aI779
aI1919
aI778
aI1920
aI1675
aI1676
aI175
aI1849
aI1464
aI1359
aI2388
asI1915
(lp1919
I1914
aI2649
asI1916
(lp1920
I1914
aI1535
aI907
asI1917
(lp1921
I1914
aI454
aI2457
asI1918
(lp1922
I1914
aI506
asI1919
(lp1923
I1914
aI1224
aI1370
aI779
aI1402
aI778
asI1920
(lp1924
I1914
aI1926
aI69
aI2310
aI2422
aI2653
asI1921
(lp1925
I1416
aI827
aI315
asI1922
(lp1926
I1416
aI1008
asI1923
(lp1927
I1416
aI1927
asI1924
(lp1928
I1416
aI1927
aI942
asI1925
(lp1929
I1416
aI1042
aI2620
asI1926
(lp1930
I1416
aI69
aI2051
aI2052
aI1920
aI1042
aI69
aI2189
asI1927
(lp1931
I405
aI1928
aI1435
aI1929
aI305
aI146
aI1930
aI1923
aI1924
aI769
aI1152
aI1218
aI738
asI1928
(lp1932
I1927
aI1344
aI2317
aI1447
aI2475
asI1929
(lp1933
I1927
aI2034
aI1671
aI1268
asI1930
(lp1934
I1927
aI1131
asI1931
(lp1935
I1413
aI1542
aI507
asI1932
(lp1936
I1413
aI402
aI1936
asI1933
(lp1937
I1413
aI507
aI1300
aI251
asI1934
(lp1938
I1413
aI338
asI1935
(lp1939
I1413
aI1542
aI877
aI1177
aI1176
aI1176
asI1936
(lp1940
I1413
aI1542
aI507
aI402
aI1932
asI1937
(lp1941
I1938
aI548
asI1938
(lp1942
I1937
asI1939
(lp1943
I1542
aI19
asI1940
(lp1944
I1542
aI507
aI402
aI1300
asI1941
(lp1945
I1542
aI1334
aI1300
aI2508
aI507
asI1942
(lp1946
I1542
aI150
aI875
asI1943
(lp1947
I1542
aI1340
asI1944
(lp1948
I352
aI336
aI1945
aI1946
aI310
aI1945
aI1950
aI1946
asI1945
(lp1949
I1944
aI310
aI1947
aI1272
aI1944
aI1946
aI875
asI1946
(lp1950
I1944
aI310
aI1945
aI1950
aI1944
asI1947
(lp1951
I310
aI1945
aI1950
aI1272
asI1948
(lp1952
I310
aI1950
aI1819
asI1949
(lp1953
I310
aI1221
asI1950
(lp1954
I310
aI1241
aI1947
aI1948
aI336
aI1815
aI892
aI1334
aI1605
aI1272
aI1944
aI310
aI1946
aI1054
aI1432
aI875
asI1951
(lp1955
I622
aI1952
aI2204
aI2206
asI1952
(lp1956
I622
aI2204
aI1951
aI2205
aI1031
aI788
aI942
aI1002
aI2206
aI1654
asI1953
(lp1957
I1470
aI458
aI1555
asI1954
(lp1958
I1955
aI1956
aI590
aI1957
aI1958
aI1901
aI1441
aI1128
aI2275
asI1955
(lp1959
I1954
aI1179
aI676
aI1168
aI807
aI2235
aI1226
aI1956
asI1956
(lp1960
I1954
aI1955
aI1226
aI807
asI1957
(lp1961
I1954
aI979
aI2241
aI1441
aI2630
aI1355
asI1958
(lp1962
I1954
aI1881
aI1237
aI735
aI739
aI1884
aI1441
asI1959
(lp1963
I119
aI904
aI379
aI132
aI379
aI2621
asI1960
(lp1964
I1360
aI1903
aI1904
aI2491
asI1961
(lp1965
I1022
aI703
aI801
asI1962
(lp1966
I1022
aI1276
aI1963
asI1963
(lp1967
I1022
aI1022
aI1962
asI1964
(lp1968
I1965
aI463
aI1906
aI248
aI1966
aI1966
asI1965
(lp1969
I1964
aI39
asI1966
(lp1970
I1964
aI1703
aI1702
aI1010
aI362
aI463
aI443
aI1964
aI1703
aI946
aI1971
aI1569
aI1234
aI94
asI1967
(lp1971
I1703
aI275
asI1968
(lp1972
I1703
aI2034
aI1671
asI1969
(lp1973
I1703
aI2236
aI2238
asI1970
(lp1974
I1703
aI1702
aI271
asI1971
(lp1975
I1703
aI1702
aI1966
asI1972
(lp1976
I1652
aI1351
aI1402
asI1973
(lp1977
I1333
aI1525
aI1974
aI666
aI32
aI1637
aI1482
aI504
aI822
aI252
aI779
aI1975
aI1976
aI490
aI1683
asI1974
(lp1978
I1973
aI578
aI737
asI1975
(lp1979
I1973
aI1421
aI2109
aI2110
aI1676
aI1224
aI1370
asI1976
(lp1980
I1973
aI147
aI502
asI1977
(lp1981
I436
aI1526
asI1978
(lp1982
I436
aI514
aI249
aI621
aI478
asI1979
(lp1983
I436
aI2178
aI2405
aI1842
aI1980
asI1980
(lp1984
I436
aI2405
aI1842
aI816
aI1979
asI1981
(lp1985
I436
aI1526
aI490
asI1982
(lp1986
I436
aI130
asI1983
(lp1987
I438
aI55
aI2034
aI897
asI1984
(lp1988
I438
aI651
aI1178
aI1529
aI1266
asI1985
(lp1989
I438
aI437
asI1986
(lp1990
I1987
aI1149
aI1709
aI1574
aI1988
aI1989
aI1812
aI179
aI1434
aI1990
aI1991
aI1166
aI215
aI1992
aI1993
aI566
aI673
aI335
aI1859
aI1704
aI1994
aI1995
aI366
aI1453
aI1127
aI460
aI1996
aI1023
aI1997
aI151
aI232
aI745
aI743
aI160
aI1998
aI681
aI1999
aI2000
aI476
aI2001
aI2002
aI2003
aI1697
aI2004
aI1095
aI201
aI2
aI968
aI45
aI71
aI2005
aI2006
aI391
aI68
aI1870
aI1873
aI2007
aI2008
aI1875
aI1876
aI2009
aI519
aI1558
aI899
aI792
asI1987
(lp1991
I1986
aI2509
aI2004
aI1295
asI1988
(lp1992
I1986
aI396
asI1989
(lp1993
I1986
aI460
asI1990
(lp1994
I1986
asI1991
(lp1995
I1986
aI2325
asI1992
(lp1996
I1986
aI1185
asI1993
(lp1997
I1986
aI849
asI1994
(lp1998
I1986
aI169
asI1995
(lp1999
I1986
aI745
aI1583
aI553
asI1996
(lp2000
I1986
aI327
aI8
aI2063
aI2064
asI1997
(lp2001
I1986
aI1347
aI2412
asI1998
(lp2002
I1986
aI519
aI109
aI191
aI695
aI1781
aI2326
aI1197
asI1999
(lp2003
I1986
aI285
aI818
aI827
asI2000
(lp2004
I1986
aI160
aI267
aI314
asI2001
(lp2005
I1986
aI429
aI2335
aI2378
aI2044
aI2348
aI503
aI574
aI2379
aI2380
aI2121
aI2002
aI2003
aI91
aI2123
aI2381
aI91
asI2002
(lp2006
I1986
aI2001
aI2379
asI2003
(lp2007
I1986
aI2001
aI2123
aI332
aI185
asI2004
(lp2008
I1986
aI1987
aI316
aI180
asI2005
(lp2009
I1986
asI2006
(lp2010
I1986
aI746
aI2477
asI2007
(lp2011
I1986
asI2008
(lp2012
I1986
aI733
aI2301
asI2009
(lp2013
I1986
aI2025
aI745
aI160
aI553
asI2010
(lp2014
I88
aI161
aI2016
aI118
asI2011
(lp2015
I88
aI733
aI25
asI2012
(lp2016
I88
aI272
asI2013
(lp2017
I88
aI471
asI2014
(lp2018
I88
aI415
asI2015
(lp2019
I88
aI2071
aI1309
asI2016
(lp2020
I88
aI2071
aI2010
aI842
aI973
asI2017
(lp2021
I88
aI130
aI1487
aI815
aI2467
asI2018
(lp2022
I76
aI356
aI1658
aI851
aI2019
aI621
aI815
asI2019
(lp2023
I2018
aI973
asI2020
(lp2024
I55
aI323
asI2021
(lp2025
I55
aI1628
aI2418
aI65
aI239
asI2022
(lp2026
I323
aI454
aI2190
asI2023
(lp2027
I651
aI2217
aI1512
asI2024
(lp2028
I651
aI1332
aI885
aI2178
aI478
aI2156
asI2025
(lp2029
I1357
aI149
aI671
aI2026
aI2027
aI1583
aI1120
aI1498
aI572
aI1110
aI2028
aI2009
asI2026
(lp2030
I2025
aI2045
aI487
aI2096
asI2027
(lp2031
I2025
aI2360
aI1239
aI938
asI2028
(lp2032
I2025
asI2029
(lp2033
I1543
aI472
aI1579
asI2030
(lp2034
I903
aI118
aI2112
asI2031
(lp2035
I903
aI2436
asI2032
(lp2036
I1336
asI2033
(lp2037
I1336
aI788
aI1002
aI740
asI2034
(lp2038
I382
aI1983
aI2035
aI1812
aI49
aI1614
aI1929
aI2036
aI1665
aI2037
aI14
aI1891
aI617
aI1807
aI691
aI1026
aI1497
aI1270
aI224
aI1968
aI2038
aI1448
aI1889
aI417
aI2039
aI841
aI1894
aI2040
aI2041
aI1002
aI791
aI1336
aI86
aI141
aI158
aI2042
aI1319
aI1654
aI2130
aI1273
asI2035
(lp2039
I2034
aI1324
aI733
asI2036
(lp2040
I2034
aI833
asI2037
(lp2041
I2034
aI180
asI2038
(lp2042
I2034
aI293
asI2039
(lp2043
I2034
aI1889
aI2042
asI2040
(lp2044
I2034
aI33
aI2122
aI2120
asI2041
(lp2045
I2034
aI429
aI48
aI788
asI2042
(lp2046
I2034
aI2039
asI2043
(lp2047
I429
aI2406
asI2044
(lp2048
I429
aI2001
asI2045
(lp2049
I1852
aI1830
aI2026
aI1856
aI1651
aI215
aI2046
aI318
aI1772
aI1013
aI139
aI341
aI603
aI1248
aI1448
aI1337
aI126
aI1787
aI1776
aI2047
aI1791
aI236
aI153
aI519
aI133
aI308
aI306
aI109
aI563
aI2048
aI699
aI1784
asI2046
(lp2050
I2045
aI236
aI484
aI306
aI2048
asI2047
(lp2051
I2045
aI294
asI2048
(lp2052
I2045
aI306
aI2046
asI2049
(lp2053
I142
aI80
asI2050
(lp2054
I1616
aI2485
asI2051
(lp2055
I1926
aI1042
aI2364
asI2052
(lp2056
I1926
aI1042
aI544
aI74
asI2053
(lp2057
I1628
aI52
asI2054
(lp2058
I1628
aI525
aI1540
aI1042
aI1628
aI2133
aI1602
aI456
aI1139
aI95
asI2055
(lp2059
I1628
aI1042
aI1588
aI2198
aI2198
asI2056
(lp2060
I1628
aI734
aI1841
aI1680
aI2311
aI100
aI408
aI2576
asI2057
(lp2061
I1628
aI525
asI2058
(lp2062
I635
aI2150
aI1378
asI2059
(lp2063
I405
aI1435
aI1008
aI146
aI1906
aI718
asI2060
(lp2064
I735
asI2061
(lp2065
I735
asI2062
(lp2066
I735
aI701
asI2063
(lp2067
I327
aI1996
aI1325
aI928
aI1326
asI2064
(lp2068
I327
aI1996
asI2065
(lp2069
I918
aI2066
aI2067
asI2066
(lp2070
I2065
aI2122
aI1098
aI1477
asI2067
(lp2071
I2065
aI1098
aI1477
asI2068
(lp2072
I1377
aI1330
aI861
asI2069
(lp2073
I1377
aI702
aI2070
aI2070
asI2070
(lp2074
I1377
aI702
aI2069
aI2069
asI2071
(lp2075
I1840
aI1592
aI1435
aI755
aI1566
aI2015
aI725
aI2016
asI2072
(lp2076
I1602
aI2182
aI1395
asI2073
(lp2077
I1602
aI1042
aI901
asI2074
(lp2078
I1602
aI2181
aI95
aI2277
aI2181
asI2075
(lp2079
I14
aI1020
aI2076
aI2077
aI775
aI2091
aI2667
aI2668
asI2076
(lp2080
I2075
aI218
aI180
aI2077
aI2667
asI2077
(lp2081
I2075
aI1704
aI486
aI14
aI1020
aI2076
asI2078
(lp2082
I236
aI306
aI836
aI1776
asI2079
(lp2083
I236
aI1802
aI126
asI2080
(lp2084
I487
aI306
aI1459
aI608
aI655
aI1770
aI112
aI1245
aI1311
aI1367
asI2081
(lp2085
I484
aI1705
asI2082
(lp2086
I133
aI18
asI2083
(lp2087
I505
aI957
aI2168
aI650
aI752
aI367
aI1550
aI1557
aI1685
aI1483
asI2084
(lp2088
I306
aI350
aI409
asI2085
(lp2089
I306
aI350
aI910
aI1490
aI2089
asI2086
(lp2090
I306
aI2094
aI1505
aI1089
asI2087
(lp2091
I306
aI1335
asI2088
(lp2092
I306
aI1797
asI2089
(lp2093
I306
aI350
aI2085
asI2090
(lp2094
I306
aI1335
aI350
aI656
asI2091
(lp2095
I306
aI218
aI2075
asI2092
(lp2096
I109
asI2093
(lp2097
I109
aI741
aI831
asI2094
(lp2098
I109
aI2086
aI530
aI2106
aI36
aI441
asI2095
(lp2099
I109
aI2329
aI2145
aI2504
aI135
asI2096
(lp2100
I2026
aI1856
aI1009
aI937
aI859
aI1784
asI2097
(lp2101
I975
aI522
aI2098
aI79
asI2098
(lp2102
I2097
asI2099
(lp2103
I1526
aI490
aI868
aI2425
asI2100
(lp2104
I803
aI830
aI1184
aI2101
asI2101
(lp2105
I2100
aI702
asI2102
(lp2106
I1309
aI2385
aI1912
asI2103
(lp2107
I1309
aI2385
aI1912
asI2104
(lp2108
I516
asI2105
(lp2109
I517
aI490
asI2106
(lp2110
I2094
aI36
asI2107
(lp2111
I36
aI1505
aI1781
aI399
asI2108
(lp2112
I693
aI1519
asI2109
(lp2113
I1975
aI604
aI1421
aI1085
aI2110
aI1396
asI2110
(lp2114
I1975
aI1421
aI2109
aI1085
asI2111
(lp2115
I711
asI2112
(lp2116
I711
aI118
aI2436
aI2030
aI255
aI1690
asI2113
(lp2117
I711
aI1483
aI704
aI1483
aI704
aI2450
aI1743
aI1077
asI2114
(lp2118
I386
aI1083
aI2588
aI2509
aI2519
asI2115
(lp2119
I386
aI2117
aI2519
asI2116
(lp2120
I356
aI1218
asI2117
(lp2121
I1508
aI770
aI2115
aI1894
aI1846
aI1867
aI2118
aI386
asI2118
(lp2122
I2117
aI1894
aI229
asI2119
(lp2123
I33
aI218
asI2120
(lp2124
I33
aI665
aI442
aI2040
aI2637
asI2121
(lp2125
I33
aI2122
aI2001
asI2122
(lp2126
I627
aI196
aI2066
aI1051
aI2040
aI2121
aI91
aI2123
aI665
aI332
asI2123
(lp2127
I2122
aI2001
aI91
aI330
aI2380
aI2003
asI2124
(lp2128
I2125
aI1611
aI2126
aI2127
aI1119
aI1608
aI2126
aI1273
aI1611
asI2125
(lp2129
I2124
aI1119
aI2126
aI1273
aI1111
asI2126
(lp2130
I2124
aI2125
aI870
aI1235
aI1273
aI1111
aI2124
aI1119
aI1608
asI2127
(lp2131
I2124
aI1119
aI2130
aI546
aI546
asI2128
(lp2132
I1119
aI2129
asI2129
(lp2133
I1119
aI1273
aI2128
aI1111
aI1119
asI2130
(lp2134
I983
aI1890
aI430
aI1891
aI691
aI1889
aI791
aI2127
aI2034
aI912
aI2249
aI1261
asI2131
(lp2135
I1463
aI2182
aI2133
asI2132
(lp2136
I1463
aI1683
aI1163
aI1482
asI2133
(lp2137
I1463
aI2054
aI2182
aI434
aI1695
aI2131
aI276
aI1695
asI2134
(lp2138
I1351
aI921
asI2135
(lp2139
I190
aI2282
aI175
asI2136
(lp2140
I1671
aI1121
aI737
aI1655
asI2137
(lp2141
I1671
aI1394
aI1487
asI2138
(lp2142
I548
aI598
aI944
asI2139
(lp2143
I2140
aI1636
aI24
aI2141
asI2140
(lp2144
I2139
aI1679
aI927
aI1301
aI17
asI2141
(lp2145
I2139
aI1636
aI2142
aI24
asI2142
(lp2146
I2141
asI2143
(lp2147
I1367
aI303
aI1787
aI1777
asI2144
(lp2148
I137
aI2145
aI2329
aI2504
aI135
aI2331
asI2145
(lp2149
I2144
aI18
aI1512
aI2095
asI2146
(lp2150
I1242
aI846
aI2147
aI1101
aI374
aI2148
aI374
aI509
asI2147
(lp2151
I2146
aI374
aI2486
aI455
aI1664
aI658
asI2148
(lp2152
I2146
aI509
aI1242
aI1101
asI2149
(lp2153
I374
asI2150
(lp2154
I2058
aI1378
asI2151
(lp2155
I1224
aI93
aI2423
asI2152
(lp2156
I1224
aI2385
asI2153
(lp2157
I1224
aI973
aI2155
asI2154
(lp2158
I1224
aI1660
aI1587
aI1291
asI2155
(lp2159
I1224
aI2293
aI1535
aI1118
aI993
aI586
aI280
aI2153
aI2294
aI1131
aI2295
aI1152
aI539
aI74
aI1143
aI749
aI1203
asI2156
(lp2160
I1224
aI324
aI651
aI2024
asI2157
(lp2161
I1835
aI108
aI2158
aI2159
aI2160
asI2158
(lp2162
I2157
asI2159
(lp2163
I2157
aI2160
aI23
asI2160
(lp2164
I2161
aI1835
aI898
aI1698
aI1328
aI1647
aI2159
aI2157
asI2161
(lp2165
I2160
aI1327
asI2162
(lp2166
I61
aI2163
aI30
aI1080
aI738
asI2163
(lp2167
I2162
aI1073
aI1303
aI1348
aI1502
asI2164
(lp2168
I87
aI2217
aI2282
asI2165
(lp2169
I118
aI1343
aI279
asI2166
(lp2170
I118
aI1029
asI2167
(lp2171
I957
asI2168
(lp2172
I2169
aI834
aI1033
aI1586
aI876
aI1726
aI1557
aI2083
asI2169
(lp2173
I2168
aI683
aI131
aI1546
aI1547
asI2170
(lp2174
I1357
aI2171
asI2171
(lp2175
I2170
asI2172
(lp2176
I1467
aI1628
aI52
aI525
aI2182
asI2173
(lp2177
I2174
aI939
asI2174
(lp2178
I2173
asI2175
(lp2179
I982
aI2176
aI1761
aI4
aI1256
asI2176
(lp2180
I2175
aI982
aI1382
aI595
aI4
aI1256
aI1016
aI4
aI1091
aI1256
asI2177
(lp2181
I644
aI2367
aI398
aI2371
asI2178
(lp2182
I415
aI737
aI2024
aI76
aI1979
aI88
aI1309
asI2179
(lp2183
I440
asI2180
(lp2184
I525
aI81
aI257
aI2183
aI2182
asI2181
(lp2185
I525
aI2196
aI2197
aI1388
aI142
aI2074
aI2202
aI95
aI2074
asI2182
(lp2186
I525
aI415
aI525
aI1838
aI2072
aI2131
aI1285
aI2180
aI95
aI858
aI2231
aI2232
aI2198
aI1515
aI2233
aI2133
aI1139
aI239
aI52
aI2172
asI2183
(lp2187
I525
aI2180
aI95
asI2184
(lp2188
I441
aI70
asI2185
(lp2189
I1538
aI1131
aI1133
aI1538
aI1500
asI2186
(lp2190
I756
aI901
aI2199
aI1279
aI1692
asI2187
(lp2191
I756
aI1472
aI1692
aI172
asI2188
(lp2192
I454
asI2189
(lp2193
I454
aI847
aI69
aI1926
aI1395
aI1682
asI2190
(lp2194
I454
aI2022
asI2191
(lp2195
I387
asI2192
(lp2196
I213
aI537
aI144
aI495
asI2193
(lp2197
I2194
aI2194
asI2194
(lp2198
I2193
aI2193
aI324
aI1120
aI2195
aI214
asI2195
(lp2199
I2194
aI1333
aI594
aI663
asI2196
(lp2200
I1631
aI2181
asI2197
(lp2201
I1388
aI965
aI2181
aI95
aI734
aI736
asI2198
(lp2202
I1042
aI2182
aI751
aI2055
aI964
aI2055
asI2199
(lp2203
I2200
aI2186
aI731
aI2201
aI680
aI901
aI544
aI1580
aI95
aI1580
aI456
asI2200
(lp2204
I2199
aI95
aI1580
asI2201
(lp2205
I2199
aI95
aI552
asI2202
(lp2206
I2181
aI734
aI736
aI751
asI2203
(lp2207
I1279
aI2511
aI731
aI2330
aI1801
asI2204
(lp2208
I1952
aI2521
aI1951
asI2205
(lp2209
I1952
aI48
aI788
asI2206
(lp2210
I1952
aI1951
aI48
asI2207
(lp2211
I979
aI2241
aI1200
asI2208
(lp2212
I1483
asI2209
(lp2213
I1504
aI1647
aI108
asI2210
(lp2214
I864
aI104
asI2211
(lp2215
I1065
aI2356
asI2212
(lp2216
I710
aI708
aI2216
aI1392
asI2213
(lp2217
I710
aI51
aI421
asI2214
(lp2218
I51
aI2216
aI1201
asI2215
(lp2219
I51
aI2216
aI1724
aI457
asI2216
(lp2220
I2214
aI708
aI2215
aI2212
aI1724
aI421
aI457
asI2217
(lp2221
I2023
aI96
aI2164
aI231
aI175
asI2218
(lp2222
I1459
aI1411
asI2219
(lp2223
I475
aI1838
aI485
aI475
asI2220
(lp2224
I1317
aI1169
aI2221
aI1148
aI2525
asI2221
(lp2225
I1317
aI2507
aI2220
aI823
aI1739
aI1148
asI2222
(lp2226
I75
aI2224
aI284
aI2225
asI2223
(lp2227
I75
aI2224
aI284
aI84
asI2224
(lp2228
I75
aI2222
aI2223
aI2226
aI2225
aI84
aI583
aI284
aI583
asI2225
(lp2229
I75
aI2224
aI284
aI2222
aI583
asI2226
(lp2230
I2224
aI284
aI84
asI2227
(lp2231
I266
aI1399
aI1630
aI1269
aI2228
aI634
asI2228
(lp2232
I2227
aI809
aI2394
aI1501
aI1396
aI2395
asI2229
(lp2233
I266
aI809
aI601
asI2230
(lp2234
I482
aI938
aI2296
aI606
asI2231
(lp2235
I2182
aI2292
asI2232
(lp2236
I2182
aI315
aI1376
asI2233
(lp2237
I2182
aI2291
aI636
asI2234
(lp2238
I1515
asI2235
(lp2239
I1955
aI612
aI676
asI2236
(lp2240
I2237
aI151
aI1969
aI805
asI2237
(lp2241
I2236
aI1240
aI2238
asI2238
(lp2242
I627
aI2239
aI2237
aI2240
aI152
aI151
aI1969
aI1703
aI1702
aI706
aI22
asI2239
(lp2243
I2238
asI2240
(lp2244
I2238
aI963
aI2399
aI152
aI1157
aI1530
aI1443
asI2241
(lp2245
I1191
aI2207
aI1503
aI1957
aI2242
aI500
asI2242
(lp2246
I2241
aI2539
asI2243
(lp2247
I2244
aI2245
aI1107
aI1503
aI2246
aI1503
asI2244
(lp2248
I2243
aI281
asI2245
(lp2249
I2243
aI2246
asI2246
(lp2250
I2243
aI2247
aI2245
aI1595
asI2247
(lp2251
I281
aI2509
aI2246
aI1086
aI2543
aI1325
aI972
asI2248
(lp2252
I1545
aI428
aI856
aI1071
aI1138
aI1255
aI348
aI1257
aI996
aI1366
aI1461
aI2249
aI837
aI1257
aI1135
asI2249
(lp2253
I2248
aI2518
aI368
aI2671
aI1257
aI2130
asI2250
(lp2254
I283
aI1260
aI348
aI1138
asI2251
(lp2255
I121
aI1158
aI2252
asI2252
(lp2256
I121
aI1158
aI2251
asI2253
(lp2257
I1697
asI2254
(lp2258
I1146
asI2255
(lp2259
I225
asI2256
(lp2260
I1878
aI102
asI2257
(lp2261
I1728
asI2258
(lp2262
I1290
aI1290
asI2259
(lp2263
I1419
aI2335
aI2337
aI1436
asI2260
(lp2264
I1419
aI1417
aI529
aI529
asI2261
(lp2265
I718
aI1474
asI2262
(lp2266
I1143
aI1015
aI1143
asI2263
(lp2267
I1015
aI94
aI2490
asI2264
(lp2268
I1104
asI2265
(lp2269
I984
aI1322
aI1324
asI2266
(lp2270
I1395
aI2267
aI2364
aI2321
asI2267
(lp2271
I1395
aI2266
asI2268
(lp2272
I1160
aI2291
aI733
aI1278
aI309
aI383
asI2269
(lp2273
I1415
aI20
aI1619
aI392
aI1903
aI370
aI2270
asI2270
(lp2274
I1414
aI20
aI2269
aI1354
aI2375
aI128
asI2271
(lp2275
I1441
asI2272
(lp2276
I1441
asI2273
(lp2277
I1441
asI2274
(lp2278
I1441
aI1370
aI1527
asI2275
(lp2279
I1441
aI1128
aI1954
asI2276
(lp2280
I868
aI1844
aI1115
asI2277
(lp2281
I734
aI839
aI2074
asI2278
(lp2282
I850
aI1359
asI2279
(lp2283
I565
aI2466
aI110
asI2280
(lp2284
I1131
aI279
aI270
aI242
aI838
aI838
asI2281
(lp2285
I1131
aI2405
aI1842
asI2282
(lp2286
I1131
aI1655
aI816
aI2164
aI1351
aI2135
asI2283
(lp2287
I1131
aI575
aI1382
asI2284
(lp2288
I2285
aI1901
asI2285
(lp2289
I2284
aI2286
aI451
aI989
asI2286
(lp2290
I2285
aI1901
aI1549
asI2287
(lp2291
I2288
aI826
aI610
asI2288
(lp2292
I2287
aI610
aI114
asI2289
(lp2293
I444
aI584
aI2464
aI623
aI444
asI2290
(lp2294
I444
aI2464
aI1207
aI2496
aI1102
aI444
asI2291
(lp2295
I1265
aI2292
aI2268
aI2233
aI481
aI733
aI1682
aI377
aI715
asI2292
(lp2296
I2291
aI2231
asI2293
(lp2297
I2155
aI921
aI1535
asI2294
(lp2298
I2155
aI1141
asI2295
(lp2299
I2155
aI1110
aI897
aI1655
aI86
asI2296
(lp2300
I313
aI2230
aI1134
asI2297
(lp2301
I2298
aI1796
aI2299
asI2298
(lp2302
I2297
asI2299
(lp2303
I2297
aI1795
asI2300
(lp2304
I1196
asI2301
(lp2305
I733
aI2008
asI2302
(lp2306
I733
aI1692
asI2303
(lp2307
I733
aI2541
aI45
asI2304
(lp2308
I733
aI2385
aI469
aI465
asI2305
(lp2309
I1278
aI309
aI1818
aI453
aI2306
aI1909
asI2306
(lp2310
I2305
aI453
aI1278
aI1818
aI2552
asI2307
(lp2311
I482
aI1742
aI1067
asI2308
(lp2312
I482
aI2559
aI159
aI531
asI2309
(lp2313
I1021
aI1399
aI461
aI1043
aI210
aI994
aI1869
aI1268
asI2310
(lp2314
I1920
aI21
asI2311
(lp2315
I2056
aI2576
asI2312
(lp2316
I1333
aI61
asI2313
(lp2317
I873
aI1708
asI2314
(lp2318
I767
aI1708
asI2315
(lp2319
I1344
asI2316
(lp2320
I1343
asI2317
(lp2321
I1928
aI1403
aI25
asI2318
(lp2322
I1681
aI1779
asI2319
(lp2323
I1681
aI1682
aI695
asI2320
(lp2324
I1681
aI1682
asI2321
(lp2325
I1682
aI2266
asI2322
(lp2326
I1705
asI2323
(lp2327
I344
aI1444
asI2324
(lp2328
I1776
aI1735
aI1283
aI1282
asI2325
(lp2329
I1768
aI1991
aI508
asI2326
(lp2330
I878
aI1998
aI1142
aI1782
asI2327
(lp2331
I2328
aI1490
aI1778
aI699
asI2328
(lp2332
I2327
asI2329
(lp2333
I2330
aI137
aI397
aI2331
aI2144
aI2095
asI2330
(lp2334
I2329
aI2203
aI861
asI2331
(lp2335
I2329
aI2144
asI2332
(lp2336
I1125
aI1669
aI1481
aI1669
asI2333
(lp2337
I1042
aI1047
aI1588
asI2334
(lp2338
I174
aI1725
asI2335
(lp2339
I1385
aI627
aI2336
aI151
aI2259
aI2001
aI1519
aI1474
aI1481
asI2336
(lp2340
I2335
aI1428
aI1202
aI2524
aI1046
aI2524
asI2337
(lp2341
I2259
asI2338
(lp2342
I1558
aI2555
asI2339
(lp2343
I1558
aI1191
aI843
aI2340
asI2340
(lp2344
I1558
aI2339
asI2341
(lp2345
I780
asI2342
(lp2346
I1259
asI2343
(lp2347
I2344
aI30
asI2344
(lp2348
I2343
aI1080
aI279
aI2475
asI2345
(lp2349
I1692
asI2346
(lp2350
I1692
aI2349
aI1469
asI2347
(lp2351
I1692
aI544
aI456
asI2348
(lp2352
I1692
aI576
aI2001
asI2349
(lp2353
I1692
aI2346
aI2358
aI1469
aI1498
aI1185
aI1460
asI2350
(lp2354
I1178
aI1529
aI1417
asI2351
(lp2355
I577
aI906
aI849
aI1064
aI1129
aI394
asI2352
(lp2356
I577
aI1064
aI1129
asI2353
(lp2357
I577
aI906
aI1129
asI2354
(lp2358
I577
asI2355
(lp2359
I2356
aI2357
aI94
aI2357
asI2356
(lp2360
I2355
aI2357
aI934
aI2211
aI675
asI2357
(lp2361
I2355
aI94
aI2355
aI2356
aI39
aI1846
asI2358
(lp2362
I2349
aI1185
aI1469
aI631
aI1460
asI2359
(lp2363
I1171
aI687
aI797
aI1834
aI1175
aI1136
aI1189
aI480
aI2372
aI290
aI1433
aI480
asI2360
(lp2364
I606
aI2027
aI27
aI2578
asI2361
(lp2365
I606
asI2362
(lp2366
I442
asI2363
(lp2367
I125
aI1555
asI2364
(lp2368
I667
aI2266
aI2051
asI2365
(lp2369
I1709
aI970
aI1565
aI1738
aI616
aI391
aI998
asI2366
(lp2370
I1738
aI46
aI686
asI2367
(lp2371
I395
aI2368
aI2369
aI894
aI765
aI1271
aI2177
aI2370
aI1093
aI1090
aI2371
aI1598
aI15
aI1147
asI2368
(lp2372
I2367
aI2370
asI2369
(lp2373
I2367
aI2370
asI2370
(lp2374
I2367
aI2368
aI2369
asI2371
(lp2375
I2367
aI1147
aI2177
asI2372
(lp2376
I687
aI2359
aI480
asI2373
(lp2377
I267
aI267
asI2374
(lp2378
I20
asI2375
(lp2379
I20
aI371
aI2270
aI1404
asI2376
(lp2380
I1428
aI1202
aI783
aI911
aI1061
aI813
aI1143
aI1143
asI2377
(lp2381
I372
asI2378
(lp2382
I2001
aI1018
asI2379
(lp2383
I2001
aI1107
aI2002
asI2380
(lp2384
I2001
aI91
aI2123
asI2381
(lp2385
I2001
aI1666
aI1662
aI1662
asI2382
(lp2386
I814
aI1158
aI2383
asI2383
(lp2387
I2382
aI893
aI1484
aI299
aI814
aI1635
aI588
aI1051
aI893
aI808
aI924
asI2384
(lp2388
I1655
asI2385
(lp2389
I2152
aI2102
aI2103
aI1338
aI995
aI2304
aI191
asI2386
(lp2390
I885
aI299
aI1082
asI2387
(lp2391
I638
aI271
aI1406
aI299
aI1046
aI1510
asI2388
(lp2392
I728
aI551
aI1914
aI1377
aI175
aI945
asI2389
(lp2393
I1740
aI2451
asI2390
(lp2394
I1740
aI2451
aI1041
aI489
aI2391
aI2391
asI2391
(lp2395
I1740
aI2451
aI489
aI2390
aI2390
asI2392
(lp2396
I1740
aI2451
aI535
asI2393
(lp2397
I1634
aI368
asI2394
(lp2398
I1399
aI1027
aI600
aI2395
aI2396
aI1421
aI1420
aI1085
aI504
aI88
aI2397
aI1174
aI471
aI724
aI2228
aI1396
asI2395
(lp2399
I2394
aI1501
aI1396
aI724
aI2228
asI2396
(lp2400
I2394
aI1420
aI504
asI2397
(lp2401
I2394
asI2398
(lp2402
I1662
aI1662
aI2493
asI2399
(lp2403
I963
aI2434
aI2240
aI43
aI1443
asI2400
(lp2404
I963
aI43
asI2401
(lp2405
I963
aI375
aI2434
aI2435
asI2402
(lp2406
I781
aI2403
asI2403
(lp2407
I2402
aI836
asI2404
(lp2408
I1912
asI2405
(lp2409
I2281
aI1842
aI1979
aI120
aI816
aI483
aI1980
asI2406
(lp2410
I2043
aI523
asI2407
(lp2411
I643
aI1313
aI573
asI2408
(lp2412
I1693
aI434
asI2409
(lp2413
I716
aI1057
asI2410
(lp2414
I2411
asI2411
(lp2415
I2410
asI2412
(lp2416
I469
aI197
aI1997
asI2413
(lp2417
I1725
aI2414
aI2415
asI2414
(lp2418
I2413
aI1200
asI2415
(lp2419
I2413
aI2597
aI915
asI2416
(lp2420
I2417
aI1152
asI2417
(lp2421
I2416
asI2418
(lp2422
I57
aI1293
aI572
aI65
aI2021
aI65
aI239
asI2419
(lp2423
I65
aI497
aI74
aI1848
asI2420
(lp2424
I640
asI2421
(lp2425
I757
asI2422
(lp2426
I847
aI1920
asI2423
(lp2427
I279
aI2151
aI304
aI518
asI2424
(lp2428
I195
aI1839
asI2425
(lp2429
I1341
aI2426
aI2099
aI1622
aI1526
asI2426
(lp2430
I2425
asI2427
(lp2431
I37
aI2428
aI349
asI2428
(lp2432
I2427
asI2429
(lp2433
I250
asI2430
(lp2434
I201
aI570
asI2431
(lp2435
I2432
aI2432
asI2432
(lp2436
I2431
aI2431
asI2433
(lp2437
I1233
asI2434
(lp2438
I1087
aI2399
aI2401
aI963
aI375
asI2435
(lp2439
I2401
aI375
asI2436
(lp2440
I2031
aI989
aI1507
aI2112
asI2437
(lp2441
I168
aI167
aI2438
asI2438
(lp2442
I168
aI2437
asI2439
(lp2443
I1229
aI2530
aI867
aI2652
asI2440
(lp2444
I1229
aI657
aI2530
aI867
asI2441
(lp2445
I1229
aI1599
asI2442
(lp2446
I1229
aI657
aI2530
aI867
aI2614
asI2443
(lp2447
I1742
aI615
asI2444
(lp2448
I1742
aI580
aI464
aI2503
aI1710
aI16
asI2445
(lp2449
I1742
aI580
aI464
aI2503
asI2446
(lp2450
I1712
aI1716
aI1749
aI609
aI2447
aI2448
aI1427
aI1216
asI2447
(lp2451
I2446
aI609
aI1037
asI2448
(lp2452
I2446
aI1067
aI762
aI1041
aI609
asI2449
(lp2453
I1523
asI2450
(lp2454
I704
aI969
aI562
aI754
aI389
aI1620
aI1743
aI1077
aI1527
aI1412
aI1284
aI2113
asI2451
(lp2455
I752
aI2452
aI367
aI2389
aI1801
aI2390
aI2391
aI2392
aI1804
aI268
aI1757
asI2452
(lp2456
I2451
aI2685
asI2453
(lp2457
I1839
aI354
asI2454
(lp2458
I122
aI99
aI26
asI2455
(lp2459
I122
aI123
aI99
aI26
asI2456
(lp2460
I672
aI817
asI2457
(lp2461
I499
aI1917
aI2458
aI2649
asI2458
(lp2462
I2457
aI499
asI2459
(lp2463
I760
aI2689
asI2460
(lp2464
I760
aI1599
asI2461
(lp2465
I106
asI2462
(lp2466
I1442
asI2463
(lp2467
I584
aI89
aI340
aI1157
asI2464
(lp2468
I1207
aI2465
aI623
aI515
aI1102
aI444
aI584
aI1530
aI2289
aI2290
aI1795
aI828
asI2465
(lp2469
I2464
aI515
aI1102
asI2466
(lp2470
I1758
aI425
aI533
aI1007
aI2279
asI2467
(lp2471
I2468
aI2017
asI2468
(lp2472
I2467
asI2469
(lp2473
I1475
aI365
asI2470
(lp2474
I1475
aI614
aI614
asI2471
(lp2475
I48
aI2493
asI2472
(lp2476
I456
aI667
aI1017
aI192
aI642
aI591
asI2473
(lp2477
I217
aI2648
asI2474
(lp2478
I217
aI243
asI2475
(lp2479
I2344
aI1928
asI2476
(lp2480
I524
aI1596
aI564
aI1169
aI1721
aI2651
aI105
asI2477
(lp2481
I2006
asI2478
(lp2482
I124
asI2479
(lp2483
I1236
asI2480
(lp2484
I1359
aI331
aI712
asI2481
(lp2485
I840
aI610
asI2482
(lp2486
I1056
aI167
asI2483
(lp2487
I385
aI2484
asI2484
(lp2488
I385
aI369
aI2483
asI2485
(lp2489
I2050
aI1592
aI1370
aI252
aI1851
aI1792
asI2486
(lp2490
I1684
aI455
aI2147
aI1684
asI2487
(lp2491
I85
asI2488
(lp2492
I85
asI2489
(lp2493
I1608
asI2490
(lp2494
I94
aI2263
asI2491
(lp2495
I1899
aI1960
aI1360
asI2492
(lp2496
I1169
aI1765
aI111
aI758
aI301
asI2493
(lp2497
I157
aI2471
aI855
aI2398
asI2494
(lp2498
I417
aI2495
asI2495
(lp2499
I2494
aI833
aI1641
aI1130
asI2496
(lp2500
I2290
asI2497
(lp2501
I388
aI703
aI1578
asI2498
(lp2502
I1484
aI299
aI271
asI2499
(lp2503
I1524
aI1117
asI2500
(lp2504
I1874
aI722
aI1567
asI2501
(lp2505
I1874
aI1106
aI1321
aI722
aI1092
aI1092
asI2502
(lp2506
I858
asI2503
(lp2507
I2444
aI1038
aI616
aI2445
aI403
aI1216
asI2504
(lp2508
I137
aI2144
aI2095
asI2505
(lp2509
I406
asI2506
(lp2510
I114
asI2507
(lp2511
I2221
aI1250
aI353
asI2508
(lp2512
I1300
aI1941
aI507
asI2509
(lp2513
I1987
aI2247
aI1365
aI2114
aI2519
asI2510
(lp2514
I1899
asI2511
(lp2515
I2203
asI2512
(lp2516
I569
asI2513
(lp2517
I1684
asI2514
(lp2518
I1154
aI2515
asI2515
(lp2519
I1154
aI2530
aI246
aI936
aI2514
aI936
asI2516
(lp2520
I801
aI2517
aI694
asI2517
(lp2521
I2516
aI941
asI2518
(lp2522
I148
aI381
aI148
aI381
aI996
aI2538
aI2249
aI1257
aI1135
aI2538
asI2519
(lp2523
I1365
aI2509
aI2114
aI2115
asI2520
(lp2524
I1484
aI1428
aI1429
asI2521
(lp2525
I2204
asI2522
(lp2526
I657
aI867
aI2656
asI2523
(lp2527
I657
aI867
asI2524
(lp2528
I1428
aI1202
aI2336
aI2336
asI2525
(lp2529
I2220
aI154
asI2526
(lp2530
I585
aI560
asI2527
(lp2531
I540
asI2528
(lp2532
I826
aI1226
asI2529
(lp2533
I959
asI2530
(lp2534
I2439
aI2440
aI936
aI2515
aI2442
aI871
asI2531
(lp2535
I1026
asI2532
(lp2536
I460
asI2533
(lp2537
I1201
asI2534
(lp2538
I729
aI2535
aI1159
aI605
aI620
asI2535
(lp2539
I1186
aI2534
asI2536
(lp2540
I1307
asI2537
(lp2541
I117
aI259
asI2538
(lp2542
I381
aI2518
aI1257
aI492
aI450
aI2518
asI2539
(lp2543
I237
aI2540
aI2632
aI2242
asI2540
(lp2544
I2539
asI2541
(lp2545
I1591
aI2303
asI2542
(lp2546
I843
asI2543
(lp2547
I2247
aI1000
aI269
asI2544
(lp2548
I3
asI2545
(lp2549
I10
asI2546
(lp2550
I952
aI5
aI466
aI628
asI2547
(lp2551
I488
aI515
asI2548
(lp2552
I582
asI2549
(lp2553
I582
asI2550
(lp2554
I1812
asI2551
(lp2555
I269
asI2552
(lp2556
I2306
asI2553
(lp2557
I728
aI1911
aI1368
aI1470
aI748
asI2554
(lp2558
I1136
aI2689
asI2555
(lp2559
I792
aI2338
aI961
aI1728
aI2599
asI2556
(lp2560
I1610
aI626
aI1249
asI2557
(lp2561
I1610
asI2558
(lp2562
I1610
aI626
aI1249
asI2559
(lp2563
I2308
asI2560
(lp2564
I2561
aI1717
aI1114
asI2561
(lp2565
I2560
asI2562
(lp2566
I292
aI1036
asI2563
(lp2567
I1050
aI1081
asI2564
(lp2568
I1050
aI194
aI1451
aI1380
aI1379
asI2565
(lp2569
I2566
aI2567
aI953
aI953
asI2566
(lp2570
I2565
aI953
asI2567
(lp2571
I2565
aI953
asI2568
(lp2572
I1023
asI2569
(lp2573
I380
aI930
aI477
aI477
asI2570
(lp2574
I1386
aI727
aI2572
aI1386
aI2573
aI1151
asI2571
(lp2575
I1386
asI2572
(lp2576
I2570
asI2573
(lp2577
I2570
aI1877
asI2574
(lp2578
I1186
asI2575
(lp2579
I1008
asI2576
(lp2580
I1680
aI2311
aI2056
asI2577
(lp2581
I1663
aI1235
asI2578
(lp2582
I2360
aI27
asI2579
(lp2583
I972
aI1086
aI1225
aI1086
asI2580
(lp2584
I972
aI186
aI186
aI1228
aI1536
asI2581
(lp2585
I449
aI83
asI2582
(lp2586
I0
aI1166
aI1862
asI2583
(lp2587
I247
asI2584
(lp2588
I876
asI2585
(lp2589
I558
aI1706
asI2586
(lp2590
I1375
asI2587
(lp2591
I1046
asI2588
(lp2592
I2114
asI2589
(lp2593
I1185
asI2590
(lp2594
I1185
aI1469
aI1498
asI2591
(lp2595
I234
aI1552
asI2592
(lp2596
I793
aI1903
asI2593
(lp2597
I1741
asI2594
(lp2598
I218
aI2680
asI2595
(lp2599
I833
asI2596
(lp2600
I1725
aI1745
aI1589
aI1751
asI2597
(lp2601
I915
aI1725
aI1734
aI1358
aI1389
aI2415
asI2598
(lp2602
I329
asI2599
(lp2603
I2555
aI1728
aI961
asI2600
(lp2604
I832
asI2601
(lp2605
I1488
aI2609
asI2602
(lp2606
I2603
asI2603
(lp2607
I2602
asI2604
(lp2608
I123
aI99
aI127
asI2605
(lp2609
I1348
asI2606
(lp2610
I670
asI2607
(lp2611
I1003
asI2608
(lp2612
I1674
aI1900
aI891
asI2609
(lp2613
I2601
aI411
asI2610
(lp2614
I1049
asI2611
(lp2615
I1239
asI2612
(lp2616
I1516
aI1280
asI2613
(lp2617
I1095
asI2614
(lp2618
I494
aI2442
aI1599
aI723
aI9
asI2615
(lp2619
I332
aI2696
asI2616
(lp2620
I1737
aI64
asI2617
(lp2621
I166
asI2618
(lp2622
I2619
asI2619
(lp2623
I2618
asI2620
(lp2624
I1925
asI2621
(lp2625
I1959
asI2622
(lp2626
I145
asI2623
(lp2627
I946
asI2624
(lp2628
I44
aI2701
aI44
asI2625
(lp2629
I2626
aI2626
asI2626
(lp2630
I2625
aI2625
asI2627
(lp2631
I929
asI2628
(lp2632
I67
asI2629
(lp2633
I692
asI2630
(lp2634
I1957
aI2699
asI2631
(lp2635
I66
asI2632
(lp2636
I2539
asI2633
(lp2637
I1563
asI2634
(lp2638
I2635
aI2636
asI2635
(lp2639
I2634
asI2636
(lp2640
I2634
aI2693
asI2637
(lp2641
I2120
asI2638
(lp2642
I447
asI2639
(lp2643
I917
asI2640
(lp2644
I1519
asI2641
(lp2645
I535
aI936
asI2642
(lp2646
I16
aI364
aI1756
aI358
asI2643
(lp2647
I111
asI2644
(lp2648
I1885
asI2645
(lp2649
I29
aI706
aI258
aI1443
asI2646
(lp2650
I194
asI2647
(lp2651
I1686
aI473
aI243
asI2648
(lp2652
I2473
aI1532
aI243
asI2649
(lp2653
I1915
aI2457
asI2650
(lp2654
I960
asI2651
(lp2655
I59
aI105
aI2476
asI2652
(lp2656
I2439
aI357
aI871
asI2653
(lp2657
I1920
aI865
asI2654
(lp2658
I1037
aI403
aI2655
asI2655
(lp2659
I2654
asI2656
(lp2660
I2522
aI1252
asI2657
(lp2661
I1642
asI2658
(lp2662
I1642
asI2659
(lp2663
I967
asI2660
(lp2664
I1673
asI2661
(lp2665
I12
aI1318
asI2662
(lp2666
I12
aI1318
aI1001
asI2663
(lp2667
I1605
aI1432
asI2664
(lp2668
I1438
asI2665
(lp2669
I2666
aI2666
asI2666
(lp2670
I2665
aI2665
asI2667
(lp2671
I45
aI486
aI1020
aI2076
aI2075
aI2668
aI2668
asI2668
(lp2672
I45
aI2667
aI486
aI14
aI2075
aI2667
asI2669
(lp2673
I592
asI2670
(lp2674
I837
aI1194
aI2679
asI2671
(lp2675
I2672
aI428
aI1533
aI1071
aI1206
aI1688
aI1135
aI2673
aI1109
aI726
aI2249
aI2674
aI2675
aI1257
asI2672
(lp2676
I2671
asI2673
(lp2677
I2671
aI1257
aI1257
aI492
asI2674
(lp2678
I2671
aI1109
aI2675
aI2675
asI2675
(lp2679
I2671
aI1109
aI2674
aI2674
asI2676
(lp2680
I200
aI1439
asI2677
(lp2681
I1257
aI956
asI2678
(lp2682
I1257
aI1135
aI492
asI2679
(lp2683
I1257
aI2670
aI2682
aI1639
aI177
asI2680
(lp2684
I1522
aI2594
asI2681
(lp2685
I1449
aI361
aI1390
aI2683
aI209
asI2682
(lp2686
I2679
aI177
asI2683
(lp2687
I2681
asI2684
(lp2688
I1349
aI1320
asI2685
(lp2689
I296
aI1718
aI2452
aI732
asI2686
(lp2690
I1657
aI1554
asI2687
(lp2691
I1554
aI2688
asI2688
(lp2692
I1554
aI2687
aI1657
asI2689
(lp2693
I2554
aI2459
asI2690
(lp2694
I611
asI2691
(lp2695
I71
aI206
aI71
asI2692
(lp2696
I1310
asI2693
(lp2697
I2636
asI2694
(lp2698
I431
aI2695
asI2695
(lp2699
I431
aI2694
asI2696
(lp2700
I2615
asI2697
(lp2701
I986
asI2698
(lp2702
I1400
aI1573
asI2699
(lp2703
I2630
asI2700
(lp2704
I1151
asI2701
(lp2705
I44
aI2624
asI2702
(lp2706
I186
aI1536
asI2703
(lp2707
I1298
asI2704
(lp2708
I641
asI2705
(lp2709
I287
asI2706
(lp2710
I165
aI2707
aI1473
aI169
asI2707
(lp2711
I598
aI165
aI1473
aI2706
as.